
exbl:     file format elf64-littleriscv
exbl
architecture: riscv:rv64, flags 0x00000112:
EXEC_P, HAS_SYMS, D_PAGED
start address 0x00000000c0000000

Program Header:
    LOAD off    0x0000000000001000 vaddr 0x00000000c0000000 paddr 0x00000000c0000000 align 2**12
         filesz 0x00000000000045c0 memsz 0x00000000000045c0 flags r-x
    LOAD off    0x0000000000006000 vaddr 0x00000000a0000000 paddr 0x00000000c00045c0 align 2**12
         filesz 0x00000000000000e0 memsz 0x00000000000000e0 flags rw-
    LOAD off    0x0000000000007000 vaddr 0x00000000a0001000 paddr 0x00000000c0006000 align 2**12
         filesz 0x0000000000000000 memsz 0x0000000000008040 flags rw-
    LOAD off    0x0000000000006ff0 vaddr 0x00000000c000fff0 paddr 0x00000000c000fff0 align 2**12
         filesz 0x0000000000000010 memsz 0x0000000000000010 flags r-x

Sections:
Idx Name          Size      VMA               LMA               File off  Algn
  0 .reset        00000320  00000000c0000000  00000000c0000000  00001000  2**0
                  CONTENTS, ALLOC, LOAD, READONLY, CODE
  1 .text         00003dc0  00000000c0000320  00000000c0000320  00001320  2**4
                  CONTENTS, ALLOC, LOAD, READONLY, CODE
  2 .ispm_text    00000000  00000000a0000000  00000000a0000000  00007000  2**0
                  CONTENTS
  3 .ispm_data    00000000  00000000a0000000  00000000a0000000  00007000  2**0
                  CONTENTS
  4 .rodata       000004e0  00000000c00040e0  00000000c00040e0  000050e0  2**5
                  CONTENTS, ALLOC, LOAD, READONLY, DATA
  5 .data         000000e0  00000000a0000000  00000000c00045c0  00006000  2**6
                  CONTENTS, ALLOC, LOAD, DATA
  6 .flag_data    00000010  00000000c000fff0  00000000c000fff0  00006ff0  2**0
                  CONTENTS, ALLOC, LOAD, READONLY, CODE
  7 .bss          00008040  00000000a0001000  00000000c0006000  00007000  2**12
                  ALLOC
  8 .debug_info   00005443  0000000000000000  0000000000000000  00007000  2**0
                  CONTENTS, READONLY, DEBUGGING
  9 .debug_abbrev 000011db  0000000000000000  0000000000000000  0000c443  2**0
                  CONTENTS, READONLY, DEBUGGING
 10 .debug_aranges 00000210  0000000000000000  0000000000000000  0000d620  2**4
                  CONTENTS, READONLY, DEBUGGING
 11 .debug_line   000042ed  0000000000000000  0000000000000000  0000d830  2**0
                  CONTENTS, READONLY, DEBUGGING
 12 .debug_str    00000ffa  0000000000000000  0000000000000000  00011b1d  2**0
                  CONTENTS, READONLY, DEBUGGING
 13 .debug_frame  00000ae8  0000000000000000  0000000000000000  00012b18  2**3
                  CONTENTS, READONLY, DEBUGGING
 14 .debug_ranges 00000030  0000000000000000  0000000000000000  00013600  2**0
                  CONTENTS, READONLY, DEBUGGING
SYMBOL TABLE:
00000000c0000000 l    d  .reset	0000000000000000 .reset
00000000c0000320 l    d  .text	0000000000000000 .text
00000000a0000000 l    d  .ispm_text	0000000000000000 .ispm_text
00000000a0000000 l    d  .ispm_data	0000000000000000 .ispm_data
00000000c00040e0 l    d  .rodata	0000000000000000 .rodata
00000000a0000000 l    d  .data	0000000000000000 .data
00000000c000fff0 l    d  .flag_data	0000000000000000 .flag_data
00000000a0001000 l    d  .bss	0000000000000000 .bss
0000000000000000 l    d  .debug_info	0000000000000000 .debug_info
0000000000000000 l    d  .debug_abbrev	0000000000000000 .debug_abbrev
0000000000000000 l    d  .debug_aranges	0000000000000000 .debug_aranges
0000000000000000 l    d  .debug_line	0000000000000000 .debug_line
0000000000000000 l    d  .debug_str	0000000000000000 .debug_str
0000000000000000 l    d  .debug_frame	0000000000000000 .debug_frame
0000000000000000 l    d  .debug_ranges	0000000000000000 .debug_ranges
0000000000000000 l    df *ABS*	0000000000000000 mentry.o
00000000a0000000 l       .data	0000000000000000 trap_table
00000000c00001f0 l       .reset	0000000000000000 __trap_from_machine_mode
00000000c00001f8 l       .reset	0000000000000000 do_reset
00000000c0000004 l       .reset	0000000000000000 trap_vector
00000000c0000134 l       .reset	0000000000000000 restore_mscratch
00000000c0000138 l       .reset	0000000000000000 restore_regs
00000000a0001000 l       .bss	0000000000000000 stacks
00000000c000fff0 l       .flag_data	0000000000000000 _flash_dummy_code
0000000000000000 l    df *ABS*	0000000000000000 uart.c
0000000000000000 l    df *ABS*	0000000000000000 print.c
00000000c00003bc l     F .text	000000000000007a skip_atoi
00000000c0000436 l     F .text	0000000000000368 number
0000000000000000 l    df *ABS*	0000000000000000 ddr.c
0000000000000000 l    df *ABS*	0000000000000000 dma.c
0000000000000000 l    df *ABS*	0000000000000000 rv_utils.c
0000000000000000 l    df *ABS*	0000000000000000 exbl.c
0000000000000000 l    df *ABS*	0000000000000000 boot.c
0000000000000000 l    df *ABS*	0000000000000000 npu_apb.c
0000000000000000 l    df *ABS*	0000000000000000 npu_app.c
0000000000000000 l    df *ABS*	0000000000000000 memcmp.c
0000000000000000 l    df *ABS*	0000000000000000 memcpy.c
0000000000000000 l    df *ABS*	0000000000000000 strnlen.c
00000000a0009000 g     O .bss	0000000000000004 g_test_data
00000000c00040e0 g       .rodata	0000000000000000 __rodata_s
00000000c0004574 g       .rodata	0000000000000000 _data_lma_e
00000000c00045c0 g       .data	0000000000000000 _fdata
00000000c000456c g       .rodata	0000000000000000 _rodata_lma_e
00000000c0004584 g       .rodata	0000000000000000 _text_e
00000000c0004564 g       .rodata	0000000000000000 _ispm_data_lma_e
00000000c00040e0 g       *ABS*	0000000000000000 __ispm_text_lma_e
0000000000000100 g       *ABS*	0000000000000000 heap_size
00000000c00037b6 g     F .text	0000000000000008 main_3
00000000c0003a4a g     F .text	000000000000006c test_npu_ext_apb_regs
00000000c00017e4 g     F .text	000000000000028e ddr_cal_test
00000000a0000000 g       .ispm_text	0000000000000000 __ispm_text_e
00000000c0004554 g       .rodata	0000000000000000 _text_lma_e
00000000c000335a g     F .text	000000000000021a rv_util_test
00000000c0003836 g     F .text	0000000000000058 _init_data_section
00000000c00040e0 g       *ABS*	0000000000000000 __ispm_data_lma_e
00000000c0003efc g     F .text	000000000000000e wait_ready
00000000c0000000 g       *ABS*	0000000000000000 __reset_lma_s
00000000c0000320 g       *ABS*	0000000000000000 __reset_lma_e
00000000c00045c0 g       .rodata	0000000000000000 _etext
00000000c0001a72 g     F .text	00000000000002de ddr_rw_test
00000000c00038f4 g     F .text	0000000000000156 probe_npu_int_apb_regs
00000000c0003200 g     F .text	0000000000000040 dmwrite32
00000000c0000fa8 g     F .text	0000000000000104 DdrMapTest
00000000c0003106 g     F .text	0000000000000076 hwflush_dcache_range
00000000c000388e g     F .text	0000000000000066 npu_read_int_reg
00000000c00035c0 g     F .text	000000000000001a call
00000000c0004012 g     F .text	00000000000000b6 memcpy
00000000c0002e9c g     F .text	00000000000000ba cdma_copy
00000000c00015cc g     F .text	000000000000009c DmOutDly
00000000c00045ac g     O .rodata	0000000000000004 _bss_e
00000000c0010000 g       .bss	0000000000000000 _bss_start
00000000c000457c g       .rodata	0000000000000000 _reset_e
00000000c0000320 g       .text	0000000000000000 __text_s
00000000c000458c g       .rodata	0000000000000000 _ispm_text_e
00000000c00045b4 g       .rodata	0000000000000000 _stack_e
00000000c0004560 g       .rodata	0000000000000000 _ispm_data_lma_s
00000000c0000320 g       .reset	0000000000000000 __reset_e
00000000c0004570 g     O .rodata	0000000000000004 _data_lma_s
00000000c0001df6 g     F .text	0000000000000042 DdrOn
00000000c0004550 g       .rodata	0000000000000000 _text_lma_s
00000000c000455c g       .rodata	0000000000000000 _ispm_text_lma_e
00000000c00045a0 g     O .rodata	0000000000000004 _data_s
00000000c00040e0 g       *ABS*	0000000000000000 __ispm_data_lma_s
00000000a0000000 g       .ispm_data	0000000000000000 __ispm_data_s
00000000c0003d96 g     F .text	0000000000000076 prepare_npu_cmd
00000000c000079e g     F .text	0000000000000764 vsnprintf_
00000000c0003cb0 g     F .text	00000000000000e6 npu_run_pic
00000000c0003ab6 g     F .text	0000000000000016 npu_get_instance
00000000a0009008 g     O .bss	0000000000000038 npu_instance
00000000c000131c g     F .text	0000000000000138 DqG2OutDly
00000000c0003acc g     F .text	0000000000000114 npu_init
00000000c00040c8 g     F .text	0000000000000018 strnlen
00000000c0001e7a g     F .text	000000000000001a DdrOffOn
00000000a00000e0 g       .data	0000000000000000 __data_e
00000000c0000000 g       .reset	0000000000000000 reset_vector
00000000c000317c g     F .text	0000000000000042 dmwrite8
00000000c00032f0 g     F .text	0000000000000036 dmread32
00000000c0004594 g       .rodata	0000000000000000 _ispm_data_e
0000000000010000 g       *ABS*	0000000000000000 __lma_size
00000000c00046a0 g       *ABS*	0000000000000000 __data_lma_e
00000000a0009040 g       .bss	0000000000000000 __bss_e
00000000c0000372 g     F .text	000000000000004a Uart_Tx
00000000c0000320 g       *ABS*	0000000000000000 __text_lma_s
00000000c0003240 g     F .text	000000000000003c dmwrite64
00000000c0003326 g     F .text	0000000000000034 dmread64
00000000c0003094 g     F .text	0000000000000016 hwflush_dcache_range_all
00000000c0004598 g       .rodata	0000000000000000 _rodata_s
00000000c0003f0a g     F .text	0000000000000036 flush_dcache_all
0000000000000000 g       .reset	0000000000000000 _ftext
00000000c0004540 g       .rodata	0000000000000000 _lma_size
00000000c0003070 g       .text	0000000000000000 hwflush_dcache_line
00000000c0001e38 g     F .text	0000000000000042 DdrOff
00000000c0002f56 g     F .text	00000000000000c8 cdma_set
00000000c000327c g     F .text	000000000000003a dmread8
0000000000000000 g       *ABS*	0000000000000000 __lma_start
00000000c0002ce2 g     F .text	00000000000000f2 dma_copy
00000000c00037a6 g     F .text	0000000000000008 main_1
00000000c00010ac g     F .text	0000000000000138 DqG0OutDly
00000000c000158c g     F .text	0000000000000040 DqOutDly
0000000000001000 g       *ABS*	0000000000000000 stack_size
00000000c0003fec g     F .text	0000000000000026 memcmp
00000000c000454c g       .rodata	0000000000000000 _reset_lma_e
00000000c0004590 g       .rodata	0000000000000000 _ispm_data_s
00000000c0003574 g     F .text	0000000000000036 sleep_
00000000c00045c0 g       *ABS*	0000000000000000 __data_lma_s
00000000c0002dd4 g     F .text	00000000000000c8 dma_set
00000000c0003f40 g     F .text	00000000000000ac run_npu
00000000c0003e0c g     F .text	00000000000000f0 load_cmd
00000000a0000040 g     O .data	0000000000000070 apb_regs
00000000c00032b6 g     F .text	000000000000003a dmread16
00000000c00030aa g     F .text	000000000000005c hwflush_dcache_range_
00000000c000459c g       .rodata	0000000000000000 _rodata_e
00000000c0001668 g     F .text	000000000000017c CaOutDly
00000000c0004580 g       .rodata	0000000000000000 _text_s
00000000c00037ae g     F .text	0000000000000008 main_2
00000000a0010000 g       .reset	0000000000000000 __ram_size
00000000c00011e4 g     F .text	0000000000000138 DqG1OutDly
00000000c0000320 g     F .text	0000000000000052 Uart_Init
00000000c0004544 g       .rodata	0000000000000000 _lma_start
00000000c00040e0 g       *ABS*	0000000000000000 __rodata_lma_s
00000000c00045a4 g     O .rodata	0000000000000004 _data_e
00000000a000fffc g       *ABS*	0000000000000000 __stack_s
00000000c0001454 g     F .text	0000000000000138 DqG3OutDly
00000000c0001e94 g     F .text	0000000000000e4e DdrInit
00000000c00035aa g     F .text	0000000000000016 main_
00000000c0004578 g       .rodata	0000000000000000 _reset_s
00000000c0003be0 g     F .text	0000000000000058 npu_set_buf
00000000c0000000 g       .reset	0000000000000000 __reset_s
00000000c0003020 g       .text	0000000000000000 swflush_dcache_line
00000000a00000e0 g       .flag_data	0000000000000000 _edata
00000000c0004558 g       .rodata	0000000000000000 _ispm_text_lma_s
00000000c00045a8 g     O .rodata	0000000000000004 _bss_s
00000000a0009040 g       .bss	0000000000000000 _end
00000000c00040e0 g       *ABS*	0000000000000000 __ispm_text_lma_s
00000000a0009004 g     O .bss	0000000000000001 g_key
00000000c00045c0 g       *ABS*	0000000000000000 __rodata_lma_e
00000000c0004588 g       .rodata	0000000000000000 _ispm_text_s
00000000a0000000 g       .ispm_text	0000000000000000 __ispm_text_s
00000000c00035da g     F .text	00000000000001cc main_0
00000000c00045b0 g       .rodata	0000000000000000 _stack_s
00000000c0004548 g       .rodata	0000000000000000 _reset_lma_s
00000000c0003c38 g     F .text	0000000000000078 npu_interrupt_hanlder
00000000c0001d50 g     F .text	00000000000000a6 DdrGetId
00000000c0004568 g       .rodata	0000000000000000 _rodata_lma_s
00000000a0001000 g       .bss	0000000000000000 __bss_s
00000000a000f000 g       *ABS*	0000000000000000 __stack_e
00000000c0000f02 g     F .text	00000000000000a6 _printf
00000000c00045c0 g       .rodata	0000000000000000 __rodata_e
00000000c00031be g     F .text	0000000000000042 dmwrite16
00000000c00001d8 g       .reset	0000000000000000 __redirect_trap
00000000c00040e0 g       .text	0000000000000000 __text_e
00000000c00037be g     F .text	0000000000000078 _init_bss_section
00000000a00000e0 g       .flag_data	0000000000000000 _fbss
00000000c00040e0 g       *ABS*	0000000000000000 __text_lma_e
00000000a0000000 g       .data	0000000000000000 __data_s
00000000a0000000 g       .ispm_data	0000000000000000 __ispm_data_e



Disassembly of section .reset:

00000000c0000000 <__reset_s>:
  .section .text.init,"ax",@progbits

  .globl reset_vector

reset_vector:
  j do_reset
    c0000000:	1f80006f          	j	c00001f8 <do_reset>

00000000c0000004 <trap_vector>:

trap_vector:
  csrrw sp, mscratch, sp
    c0000004:	34011173          	csrrw	sp,mscratch,sp
  beqz sp, .Ltrap_from_machine_mode
    c0000008:	1a010863          	beqz	sp,c00001b8 <restore_regs+0x80>

  STORE a0, 10*REGBYTES(sp)
    c000000c:	04a13823          	sd	a0,80(sp)
  STORE a1, 11*REGBYTES(sp)
    c0000010:	04b13c23          	sd	a1,88(sp)

  csrr a1, mcause
    c0000014:	342025f3          	csrr	a1,mcause
  bgez a1, .Lhandle_trap_in_machine_mode
    c0000018:	0805d263          	bgez	a1,c000009c <trap_vector+0x98>

  # This is an interrupt.  Discard the mcause MSB and decode the rest.
  sll a1, a1, 1
    c000001c:	00159593          	slli	a1,a1,0x1

  # Is it a machine timer interrupt?
  li a0, IRQ_M_TIMER * 2
    c0000020:	00e00513          	li	a0,14
  bne a0, a1, 1f
    c0000024:	02b51263          	bne	a0,a1,c0000048 <trap_vector+0x44>

  # Yes.  Simply clear MSIE and raise SSIP.
  li a0, MIP_MTIP
    c0000028:	08000513          	li	a0,128
  csrc mie, a0
    c000002c:	30453073          	csrc	mie,a0
  li a0, MIP_STIP
    c0000030:	02000513          	li	a0,32
  csrs mip, a0
    c0000034:	34452073          	csrs	mip,a0

.Lmret:
  # Go back whence we came.
  LOAD a0, 10*REGBYTES(sp)
    c0000038:	05013503          	ld	a0,80(sp)
  LOAD a1, 11*REGBYTES(sp)
    c000003c:	05813583          	ld	a1,88(sp)
  csrrw sp, mscratch, sp
    c0000040:	34011173          	csrrw	sp,mscratch,sp
  mret
    c0000044:	30200073          	mret

1:
  # Is it an IPI?
  li a0, IRQ_M_SOFT * 2
    c0000048:	00600513          	li	a0,6
  bne a0, a1, .Lbad_trap
    c000004c:	18b51263          	bne	a0,a1,c00001d0 <restore_regs+0x98>

  # Yes.  First, clear the MIPI bit.
  LOAD a0, MENTRY_IPI_OFFSET(sp)
    c0000050:	10013503          	ld	a0,256(sp)
  sw x0, (a0)
    c0000054:	00052023          	sw	zero,0(a0)
  fence
    c0000058:	0ff0000f          	fence

  # Now, decode the cause(s).
#ifdef __riscv_atomic
  addi a0, sp, MENTRY_IPI_PENDING_OFFSET
    c000005c:	10810513          	addi	a0,sp,264
  amoswap.w a0, x0, (a0)
    c0000060:	0805252f          	amoswap.w	a0,zero,(a0)
#else
  lw a0, MENTRY_IPI_PENDING_OFFSET(a0)
  sw x0, MENTRY_IPI_PENDING_OFFSET(a0)
#endif
  and a1, a0, IPI_SOFT
    c0000064:	00157593          	andi	a1,a0,1
  beqz a1, 1f
    c0000068:	00058463          	beqz	a1,c0000070 <trap_vector+0x6c>
  csrs mip, MIP_SSIP
    c000006c:	34416073          	csrsi	mip,2
1:
  andi a1, a0, IPI_FENCE_I
    c0000070:	00257593          	andi	a1,a0,2
  beqz a1, 1f
    c0000074:	00058463          	beqz	a1,c000007c <trap_vector+0x78>
  fence.i
    c0000078:	0000100f          	fence.i
1:
  andi a1, a0, IPI_SFENCE_VMA
    c000007c:	00457593          	andi	a1,a0,4
  beqz a1, 1f
    c0000080:	00058463          	beqz	a1,c0000088 <trap_vector+0x84>
  sfence.vma
    c0000084:	12000073          	sfence.vma
1:
  andi a1, a0, IPI_HALT
    c0000088:	00857593          	andi	a1,a0,8
  beqz a1, 1f
    c000008c:	00058663          	beqz	a1,c0000098 <trap_vector+0x94>
  wfi
    c0000090:	10500073          	wfi
  j 1b
    c0000094:	ff5ff06f          	j	c0000088 <trap_vector+0x84>
1:
  j .Lmret
    c0000098:	fa1ff06f          	j	c0000038 <trap_vector+0x34>


.Lhandle_trap_in_machine_mode:
  # Preserve the registers.  Compute the address of the trap handler.
  STORE ra, 1*REGBYTES(sp)
    c000009c:	00113423          	sd	ra,8(sp)
  STORE gp, 3*REGBYTES(sp)
    c00000a0:	00313c23          	sd	gp,24(sp)
  STORE tp, 4*REGBYTES(sp)
    c00000a4:	02413023          	sd	tp,32(sp)
  STORE t0, 5*REGBYTES(sp)
    c00000a8:	02513423          	sd	t0,40(sp)
1:auipc t0, %pcrel_hi(trap_table)  # t0 <- %hi(trap_table)
    c00000ac:	e0000297          	auipc	t0,0xe0000
  STORE t1, 6*REGBYTES(sp)
    c00000b0:	02613823          	sd	t1,48(sp)
  sll t1, a1, 2                    # t1 <- mcause << 2
    c00000b4:	00259313          	slli	t1,a1,0x2
  STORE t2, 7*REGBYTES(sp)
    c00000b8:	02713c23          	sd	t2,56(sp)
  add t1, t0, t1                   # t1 <- %hi(trap_table)[mcause]
    c00000bc:	00628333          	add	t1,t0,t1
  STORE s0, 8*REGBYTES(sp)
    c00000c0:	04813023          	sd	s0,64(sp)
  LWU t1, %pcrel_lo(1b)(t1)         # t1 <- trap_table[mcause]
    c00000c4:	f5436303          	lwu	t1,-172(t1)
  STORE s1, 9*REGBYTES(sp)
    c00000c8:	04913423          	sd	s1,72(sp)
  mv a0, sp                        # a0 <- regs
    c00000cc:	00010513          	mv	a0,sp
  STORE a2,12*REGBYTES(sp)
    c00000d0:	06c13023          	sd	a2,96(sp)
  csrr a2, mepc                    # a2 <- mepc
    c00000d4:	34102673          	csrr	a2,mepc
  STORE a3,13*REGBYTES(sp)
    c00000d8:	06d13423          	sd	a3,104(sp)
  csrrw t0, mscratch, x0           # t0 <- user sp
    c00000dc:	340012f3          	csrrw	t0,mscratch,zero
  STORE a4,14*REGBYTES(sp)
    c00000e0:	06e13823          	sd	a4,112(sp)
  STORE a5,15*REGBYTES(sp)
    c00000e4:	06f13c23          	sd	a5,120(sp)
  STORE a6,16*REGBYTES(sp)
    c00000e8:	09013023          	sd	a6,128(sp)
  STORE a7,17*REGBYTES(sp)
    c00000ec:	09113423          	sd	a7,136(sp)
  STORE s2,18*REGBYTES(sp)
    c00000f0:	09213823          	sd	s2,144(sp)
  STORE s3,19*REGBYTES(sp)
    c00000f4:	09313c23          	sd	s3,152(sp)
  STORE s4,20*REGBYTES(sp)
    c00000f8:	0b413023          	sd	s4,160(sp)
  STORE s5,21*REGBYTES(sp)
    c00000fc:	0b513423          	sd	s5,168(sp)
  STORE s6,22*REGBYTES(sp)
    c0000100:	0b613823          	sd	s6,176(sp)
  STORE s7,23*REGBYTES(sp)
    c0000104:	0b713c23          	sd	s7,184(sp)
  STORE s8,24*REGBYTES(sp)
    c0000108:	0d813023          	sd	s8,192(sp)
  STORE s9,25*REGBYTES(sp)
    c000010c:	0d913423          	sd	s9,200(sp)
  STORE s10,26*REGBYTES(sp)
    c0000110:	0da13823          	sd	s10,208(sp)
  STORE s11,27*REGBYTES(sp)
    c0000114:	0db13c23          	sd	s11,216(sp)
  STORE t3,28*REGBYTES(sp)
    c0000118:	0fc13023          	sd	t3,224(sp)
  STORE t4,29*REGBYTES(sp)
    c000011c:	0fd13423          	sd	t4,232(sp)
  STORE t5,30*REGBYTES(sp)
    c0000120:	0fe13823          	sd	t5,240(sp)
  STORE t6,31*REGBYTES(sp)
    c0000124:	0ff13c23          	sd	t6,248(sp)
  STORE t0, 2*REGBYTES(sp)         # sp
    c0000128:	00513823          	sd	t0,16(sp)

#ifndef __riscv_flen
  lw tp, (sp) # Move the emulated FCSR from x0's save slot into tp.
#endif
  STORE x0, (sp) # Zero x0's save slot.
    c000012c:	00013023          	sd	zero,0(sp)

  # Invoke the handler.
  jalr t1
    c0000130:	000300e7          	jalr	t1

00000000c0000134 <restore_mscratch>:
  sw tp, (sp) # Move the emulated FCSR from tp into x0's save slot.
#endif

restore_mscratch:
  # Restore mscratch, so future traps will know they didn't come from M-mode.
  csrw mscratch, sp
    c0000134:	34011073          	csrw	mscratch,sp

00000000c0000138 <restore_regs>:

restore_regs:
  # Restore all of the registers.
  LOAD ra, 1*REGBYTES(sp)
    c0000138:	00813083          	ld	ra,8(sp)
  LOAD gp, 3*REGBYTES(sp)
    c000013c:	01813183          	ld	gp,24(sp)
  LOAD tp, 4*REGBYTES(sp)
    c0000140:	02013203          	ld	tp,32(sp)
  LOAD t0, 5*REGBYTES(sp)
    c0000144:	02813283          	ld	t0,40(sp)
  LOAD t1, 6*REGBYTES(sp)
    c0000148:	03013303          	ld	t1,48(sp)
  LOAD t2, 7*REGBYTES(sp)
    c000014c:	03813383          	ld	t2,56(sp)
  LOAD s0, 8*REGBYTES(sp)
    c0000150:	04013403          	ld	s0,64(sp)
  LOAD s1, 9*REGBYTES(sp)
    c0000154:	04813483          	ld	s1,72(sp)
  LOAD a0,10*REGBYTES(sp)
    c0000158:	05013503          	ld	a0,80(sp)
  LOAD a1,11*REGBYTES(sp)
    c000015c:	05813583          	ld	a1,88(sp)
  LOAD a2,12*REGBYTES(sp)
    c0000160:	06013603          	ld	a2,96(sp)
  LOAD a3,13*REGBYTES(sp)
    c0000164:	06813683          	ld	a3,104(sp)
  LOAD a4,14*REGBYTES(sp)
    c0000168:	07013703          	ld	a4,112(sp)
  LOAD a5,15*REGBYTES(sp)
    c000016c:	07813783          	ld	a5,120(sp)
  LOAD a6,16*REGBYTES(sp)
    c0000170:	08013803          	ld	a6,128(sp)
  LOAD a7,17*REGBYTES(sp)
    c0000174:	08813883          	ld	a7,136(sp)
  LOAD s2,18*REGBYTES(sp)
    c0000178:	09013903          	ld	s2,144(sp)
  LOAD s3,19*REGBYTES(sp)
    c000017c:	09813983          	ld	s3,152(sp)
  LOAD s4,20*REGBYTES(sp)
    c0000180:	0a013a03          	ld	s4,160(sp)
  LOAD s5,21*REGBYTES(sp)
    c0000184:	0a813a83          	ld	s5,168(sp)
  LOAD s6,22*REGBYTES(sp)
    c0000188:	0b013b03          	ld	s6,176(sp)
  LOAD s7,23*REGBYTES(sp)
    c000018c:	0b813b83          	ld	s7,184(sp)
  LOAD s8,24*REGBYTES(sp)
    c0000190:	0c013c03          	ld	s8,192(sp)
  LOAD s9,25*REGBYTES(sp)
    c0000194:	0c813c83          	ld	s9,200(sp)
  LOAD s10,26*REGBYTES(sp)
    c0000198:	0d013d03          	ld	s10,208(sp)
  LOAD s11,27*REGBYTES(sp)
    c000019c:	0d813d83          	ld	s11,216(sp)
  LOAD t3,28*REGBYTES(sp)
    c00001a0:	0e013e03          	ld	t3,224(sp)
  LOAD t4,29*REGBYTES(sp)
    c00001a4:	0e813e83          	ld	t4,232(sp)
  LOAD t5,30*REGBYTES(sp)
    c00001a8:	0f013f03          	ld	t5,240(sp)
  LOAD t6,31*REGBYTES(sp)
    c00001ac:	0f813f83          	ld	t6,248(sp)
  LOAD sp, 2*REGBYTES(sp)
    c00001b0:	01013103          	ld	sp,16(sp)
  mret
    c00001b4:	30200073          	mret

.Ltrap_from_machine_mode:
  csrr sp, mscratch
    c00001b8:	34002173          	csrr	sp,mscratch
  addi sp, sp, -INTEGER_CONTEXT_SIZE
    c00001bc:	f0010113          	addi	sp,sp,-256
  STORE a0,10*REGBYTES(sp)
    c00001c0:	04a13823          	sd	a0,80(sp)
  STORE a1,11*REGBYTES(sp)
    c00001c4:	04b13c23          	sd	a1,88(sp)
  li a1, TRAP_FROM_MACHINE_MODE_VECTOR
    c00001c8:	00d00593          	li	a1,13
  j .Lhandle_trap_in_machine_mode
    c00001cc:	ed1ff06f          	j	c000009c <trap_vector+0x98>

.Lbad_trap:
  li a1, BAD_TRAP_VECTOR
    c00001d0:	00000593          	li	a1,0
  j .Lhandle_trap_in_machine_mode
    c00001d4:	ec9ff06f          	j	c000009c <trap_vector+0x98>

00000000c00001d8 <__redirect_trap>:

  .globl __redirect_trap
__redirect_trap:
  # reset sp to top of M-mode stack
  li t0, MACHINE_STACK_SIZE
    c00001d8:	000012b7          	lui	t0,0x1
  add sp, sp, t0
    c00001dc:	00510133          	add	sp,sp,t0
  neg t0, t0
    c00001e0:	405002b3          	neg	t0,t0
  and sp, sp, t0
    c00001e4:	00517133          	and	sp,sp,t0
  addi sp, sp, -MENTRY_FRAME_SIZE
    c00001e8:	ec010113          	addi	sp,sp,-320
  j restore_mscratch
    c00001ec:	f49ff06f          	j	c0000134 <restore_mscratch>

00000000c00001f0 <__trap_from_machine_mode>:

__trap_from_machine_mode:
  jal main_
    c00001f0:	3ba030ef          	jal	ra,c00035aa <main_>
  j restore_regs
    c00001f4:	f45ff06f          	j	c0000138 <restore_regs>

00000000c00001f8 <do_reset>:

do_reset:
  li x1, 0
    c00001f8:	00000093          	li	ra,0
  li x2, 0
    c00001fc:	00000113          	li	sp,0
  li x3, 0
    c0000200:	00000193          	li	gp,0
  li x4, 0
    c0000204:	00000213          	li	tp,0
  li x5, 0
    c0000208:	00000293          	li	t0,0
  li x6, 0
    c000020c:	00000313          	li	t1,0
  li x7, 0
    c0000210:	00000393          	li	t2,0
  li x8, 0
    c0000214:	00000413          	li	s0,0
  li x9, 0
    c0000218:	00000493          	li	s1,0
// save a0 and a1; arguments from previous boot loader stage:
//  li x10, 0
//  li x11, 0
  li x12, 0
    c000021c:	00000613          	li	a2,0
  li x13, 0
    c0000220:	00000693          	li	a3,0
  li x14, 0
    c0000224:	00000713          	li	a4,0
  li x15, 0
    c0000228:	00000793          	li	a5,0
  li x16, 0
    c000022c:	00000813          	li	a6,0
  li x17, 0
    c0000230:	00000893          	li	a7,0
  li x18, 0
    c0000234:	00000913          	li	s2,0
  li x19, 0
    c0000238:	00000993          	li	s3,0
  li x20, 0
    c000023c:	00000a13          	li	s4,0
  li x21, 0
    c0000240:	00000a93          	li	s5,0
  li x22, 0
    c0000244:	00000b13          	li	s6,0
  li x23, 0
    c0000248:	00000b93          	li	s7,0
  li x24, 0
    c000024c:	00000c13          	li	s8,0
  li x25, 0
    c0000250:	00000c93          	li	s9,0
  li x26, 0
    c0000254:	00000d13          	li	s10,0
  li x27, 0
    c0000258:	00000d93          	li	s11,0
  li x28, 0
    c000025c:	00000e13          	li	t3,0
  li x29, 0
    c0000260:	00000e93          	li	t4,0
  li x30, 0
    c0000264:	00000f13          	li	t5,0
  li x31, 0
    c0000268:	00000f93          	li	t6,0
  csrw mscratch, x0
    c000026c:	34001073          	csrw	mscratch,zero

  # write mtvec and make sure it sticks
  la t0, trap_vector
    c0000270:	00000297          	auipc	t0,0x0
    c0000274:	d9428293          	addi	t0,t0,-620 # c0000004 <trap_vector>
  csrw mtvec, t0
    c0000278:	30529073          	csrw	mtvec,t0
  csrr t1, mtvec
    c000027c:	30502373          	csrr	t1,mtvec
1:bne t0, t1, 1b
    c0000280:	00629063          	bne	t0,t1,c0000280 <do_reset+0x88>

  li sp, 0xA003C000
    c0000284:	00028137          	lui	sp,0x28
    c0000288:	00f1011b          	addiw	sp,sp,15
    c000028c:	00e11113          	slli	sp,sp,0xe

  csrr a3, mhartid
    c0000290:	f14026f3          	csrr	a3,mhartid
  slli a2, a3, RISCV_PGSHIFT
    c0000294:	00c69613          	slli	a2,a3,0xc
  add sp, sp, a2
    c0000298:	00c10133          	add	sp,sp,a2

  # Boot on the first hart
 # beqz a3, main_0
  li a4, 1
    c000029c:	00100713          	li	a4,1
  beq a3, a4, main_1
    c00002a0:	00e69463          	bne	a3,a4,c00002a8 <do_reset+0xb0>
    c00002a4:	5020306f          	j	c00037a6 <main_1>
  li a4, 2
    c00002a8:	00200713          	li	a4,2
  beq a3, a4, main_2
    c00002ac:	00e69463          	bne	a3,a4,c00002b4 <do_reset+0xbc>
    c00002b0:	4fe0306f          	j	c00037ae <main_2>
  li a4, 3
    c00002b4:	00300713          	li	a4,3
  beq a3, a4, main_3
    c00002b8:	00e69463          	bne	a3,a4,c00002c0 <do_reset+0xc8>
    c00002bc:	4fa0306f          	j	c00037b6 <main_3>
  li a4, 0
    c00002c0:	00000713          	li	a4,0
  beq a3, a4, main_0
    c00002c4:	00e69463          	bne	a3,a4,c00002cc <do_reset+0xd4>
    c00002c8:	3120306f          	j	c00035da <main_0>



  # set MSIE bit to receive IPI
  li a2, MIP_MSIP
    c00002cc:	00800613          	li	a2,8
  csrw mie, a2
    c00002d0:	30461073          	csrw	mie,a2

.LmultiHart:
#if MAX_HARTS > 1
  # wait for an IPI to signal that it's safe to boot
  wfi
    c00002d4:	10500073          	wfi

  # masked harts never start
  la a4, main_
    c00002d8:	00003717          	auipc	a4,0x3
    c00002dc:	2d270713          	addi	a4,a4,722 # c00035aa <main_>
  LOAD a4, 0(a4)
    c00002e0:	00073703          	ld	a4,0(a4)
  srl a4, a4, a3
    c00002e4:	00d75733          	srl	a4,a4,a3
  andi a4, a4, 1
    c00002e8:	00177713          	andi	a4,a4,1
  bnez a4, .LmultiHart
    c00002ec:	fe0714e3          	bnez	a4,c00002d4 <do_reset+0xdc>

  # only start if mip is set
  csrr a2, mip
    c00002f0:	34402673          	csrr	a2,mip
  andi a2, a2, MIP_MSIP
    c00002f4:	00867613          	andi	a2,a2,8
  beqz a2, .LmultiHart
    c00002f8:	fc060ee3          	beqz	a2,c00002d4 <do_reset+0xdc>

  # make sure our hart id is within a valid range
  fence
    c00002fc:	0ff0000f          	fence
  li a2, MAX_HARTS
    c0000300:	00800613          	li	a2,8
  bltu a3, a2, main_
    c0000304:	00c6f463          	bleu	a2,a3,c000030c <do_reset+0x114>
    c0000308:	2a20306f          	j	c00035aa <main_>
#endif
  wfi
    c000030c:	10500073          	wfi
  j .LmultiHart
    c0000310:	fc5ff06f          	j	c00002d4 <do_reset+0xdc>
	...

Disassembly of section .text:

00000000c0000320 <Uart_Init>:

//#define MCK_FREQ				(41625*1000)
#define MCK_FREQ				(37125*1000)

void Uart_Init(unsigned int Baud_Rate)
{
    c0000320:	7179                	addi	sp,sp,-48
    c0000322:	f422                	sd	s0,40(sp)
    c0000324:	1800                	addi	s0,sp,48
    c0000326:	87aa                	mv	a5,a0
    c0000328:	fcf42e23          	sw	a5,-36(s0)
	volatile unsigned int *pUart = (unsigned int *)(UART_CSR);
    c000032c:	44c007b7          	lui	a5,0x44c00
    c0000330:	fef43423          	sd	a5,-24(s0)
	*pUart =  (unsigned int)(((MCK_FREQ / (Baud_Rate << 4)) - 1) << 20) | 0x00002040u;
    c0000334:	fdc42783          	lw	a5,-36(s0)
    c0000338:	0047979b          	slliw	a5,a5,0x4
    c000033c:	2781                	sext.w	a5,a5
    c000033e:	02368737          	lui	a4,0x2368
    c0000342:	b887071b          	addiw	a4,a4,-1144
    c0000346:	02f757bb          	divuw	a5,a4,a5
    c000034a:	2781                	sext.w	a5,a5
    c000034c:	37fd                	addiw	a5,a5,-1
    c000034e:	2781                	sext.w	a5,a5
    c0000350:	0147979b          	slliw	a5,a5,0x14
    c0000354:	2781                	sext.w	a5,a5
    c0000356:	873e                	mv	a4,a5
    c0000358:	6789                	lui	a5,0x2
    c000035a:	04078793          	addi	a5,a5,64 # 2040 <stack_size+0x1040>
    c000035e:	8fd9                	or	a5,a5,a4
    c0000360:	0007871b          	sext.w	a4,a5
    c0000364:	fe843783          	ld	a5,-24(s0)
    c0000368:	c398                	sw	a4,0(a5)
}
    c000036a:	0001                	nop
    c000036c:	7422                	ld	s0,40(sp)
    c000036e:	6145                	addi	sp,sp,48
    c0000370:	8082                	ret

00000000c0000372 <Uart_Tx>:

void Uart_Tx(int ch)
{
    c0000372:	7179                	addi	sp,sp,-48
    c0000374:	f422                	sd	s0,40(sp)
    c0000376:	1800                	addi	s0,sp,48
    c0000378:	87aa                	mv	a5,a0
    c000037a:	fcf42e23          	sw	a5,-36(s0)
	volatile unsigned int *tx = (unsigned int *)(UART_TX);
    c000037e:	44c007b7          	lui	a5,0x44c00
    c0000382:	07c1                	addi	a5,a5,16
    c0000384:	fef43423          	sd	a5,-24(s0)
	volatile unsigned int *csr = (unsigned int *)(UART_CSR);
    c0000388:	44c007b7          	lui	a5,0x44c00
    c000038c:	fef43023          	sd	a5,-32(s0)

	while(*csr & 0x20);
    c0000390:	0001                	nop
    c0000392:	fe043783          	ld	a5,-32(s0)
    c0000396:	439c                	lw	a5,0(a5)
    c0000398:	2781                	sext.w	a5,a5
    c000039a:	0207f793          	andi	a5,a5,32
    c000039e:	2781                	sext.w	a5,a5
    c00003a0:	fbed                	bnez	a5,c0000392 <Uart_Tx+0x20>
	*tx = ((unsigned int)ch) & 0x000000ffu;
    c00003a2:	fdc42783          	lw	a5,-36(s0)
    c00003a6:	0ff7f793          	andi	a5,a5,255
    c00003aa:	0007871b          	sext.w	a4,a5
    c00003ae:	fe843783          	ld	a5,-24(s0)
    c00003b2:	c398                	sw	a4,0(a5)
}
    c00003b4:	0001                	nop
    c00003b6:	7422                	ld	s0,40(sp)
    c00003b8:	6145                	addi	sp,sp,48
    c00003ba:	8082                	ret

00000000c00003bc <skip_atoi>:




static int skip_atoi(const char **s)
{
    c00003bc:	7179                	addi	sp,sp,-48
    c00003be:	f422                	sd	s0,40(sp)
    c00003c0:	1800                	addi	s0,sp,48
    c00003c2:	fca43c23          	sd	a0,-40(s0)
  int i = 0;
    c00003c6:	fe042623          	sw	zero,-20(s0)
  while (is_digit(**s)) i = i*10 + *((*s)++) - '0';
    c00003ca:	a825                	j	c0000402 <skip_atoi+0x46>
    c00003cc:	fec42703          	lw	a4,-20(s0)
    c00003d0:	87ba                	mv	a5,a4
    c00003d2:	0027979b          	slliw	a5,a5,0x2
    c00003d6:	9fb9                	addw	a5,a5,a4
    c00003d8:	0017979b          	slliw	a5,a5,0x1
    c00003dc:	0007871b          	sext.w	a4,a5
    c00003e0:	fd843783          	ld	a5,-40(s0)
    c00003e4:	639c                	ld	a5,0(a5)
    c00003e6:	00178613          	addi	a2,a5,1 # 44c00001 <__lma_size+0x44bf0001>
    c00003ea:	fd843683          	ld	a3,-40(s0)
    c00003ee:	e290                	sd	a2,0(a3)
    c00003f0:	0007c783          	lbu	a5,0(a5)
    c00003f4:	2781                	sext.w	a5,a5
    c00003f6:	9fb9                	addw	a5,a5,a4
    c00003f8:	2781                	sext.w	a5,a5
    c00003fa:	fd07879b          	addiw	a5,a5,-48
    c00003fe:	fef42623          	sw	a5,-20(s0)
    c0000402:	fd843783          	ld	a5,-40(s0)
    c0000406:	639c                	ld	a5,0(a5)
    c0000408:	0007c783          	lbu	a5,0(a5)
    c000040c:	873e                	mv	a4,a5
    c000040e:	02f00793          	li	a5,47
    c0000412:	00e7fc63          	bleu	a4,a5,c000042a <skip_atoi+0x6e>
    c0000416:	fd843783          	ld	a5,-40(s0)
    c000041a:	639c                	ld	a5,0(a5)
    c000041c:	0007c783          	lbu	a5,0(a5)
    c0000420:	873e                	mv	a4,a5
    c0000422:	03900793          	li	a5,57
    c0000426:	fae7f3e3          	bleu	a4,a5,c00003cc <skip_atoi+0x10>
  return i;
    c000042a:	fec42783          	lw	a5,-20(s0)
}
    c000042e:	853e                	mv	a0,a5
    c0000430:	7422                	ld	s0,40(sp)
    c0000432:	6145                	addi	sp,sp,48
    c0000434:	8082                	ret

00000000c0000436 <number>:

static char *number(char *str, long num, int base, int size, int precision, int type)
{
    c0000436:	7135                	addi	sp,sp,-160
    c0000438:	ed22                	sd	s0,152(sp)
    c000043a:	1100                	addi	s0,sp,160
    c000043c:	f6a43c23          	sd	a0,-136(s0)
    c0000440:	f6b43823          	sd	a1,-144(s0)
    c0000444:	85b2                	mv	a1,a2
    c0000446:	8636                	mv	a2,a3
    c0000448:	86ba                	mv	a3,a4
    c000044a:	873e                	mv	a4,a5
    c000044c:	87ae                	mv	a5,a1
    c000044e:	f6f42623          	sw	a5,-148(s0)
    c0000452:	87b2                	mv	a5,a2
    c0000454:	f6f42423          	sw	a5,-152(s0)
    c0000458:	87b6                	mv	a5,a3
    c000045a:	f6f42223          	sw	a5,-156(s0)
    c000045e:	87ba                	mv	a5,a4
    c0000460:	f6f42023          	sw	a5,-160(s0)
  const char *digits = "0123456789abcdefghijklmnopqrstuvwxyz";
    c0000464:	00004797          	auipc	a5,0x4
    c0000468:	c7c78793          	addi	a5,a5,-900 # c00040e0 <__text_e>
    c000046c:	fcf43823          	sd	a5,-48(s0)
  const char *upper_digits = "0123456789ABCDEFGHIJKLMNOPQRSTUVWXYZ";
    c0000470:	00004797          	auipc	a5,0x4
    c0000474:	c9878793          	addi	a5,a5,-872 # c0004108 <__text_e+0x28>
    c0000478:	fcf43423          	sd	a5,-56(s0)
  char c, sign, tmp[66];
  char *dig = (char *)digits;
    c000047c:	fd043783          	ld	a5,-48(s0)
    c0000480:	fef43023          	sd	a5,-32(s0)
  int i;

  if (type & LARGE) dig = (char *)upper_digits;
    c0000484:	f6042783          	lw	a5,-160(s0)
    c0000488:	0407f793          	andi	a5,a5,64
    c000048c:	2781                	sext.w	a5,a5
    c000048e:	c789                	beqz	a5,c0000498 <number+0x62>
    c0000490:	fc843783          	ld	a5,-56(s0)
    c0000494:	fef43023          	sd	a5,-32(s0)
  if (type & LEFT) type &= ~ZEROPAD;
    c0000498:	f6042783          	lw	a5,-160(s0)
    c000049c:	8bc1                	andi	a5,a5,16
    c000049e:	2781                	sext.w	a5,a5
    c00004a0:	c791                	beqz	a5,c00004ac <number+0x76>
    c00004a2:	f6042783          	lw	a5,-160(s0)
    c00004a6:	9bf9                	andi	a5,a5,-2
    c00004a8:	f6f42023          	sw	a5,-160(s0)
  if (base < 2 || base > 36) return 0;
    c00004ac:	f6c42783          	lw	a5,-148(s0)
    c00004b0:	0007871b          	sext.w	a4,a5
    c00004b4:	4785                	li	a5,1
    c00004b6:	00e7da63          	ble	a4,a5,c00004ca <number+0x94>
    c00004ba:	f6c42783          	lw	a5,-148(s0)
    c00004be:	0007871b          	sext.w	a4,a5
    c00004c2:	02400793          	li	a5,36
    c00004c6:	00e7d463          	ble	a4,a5,c00004ce <number+0x98>
    c00004ca:	4781                	li	a5,0
    c00004cc:	a4e9                	j	c0000796 <number+0x360>

  c = (type & ZEROPAD) ? '0' : ' ';
    c00004ce:	f6042783          	lw	a5,-160(s0)
    c00004d2:	8b85                	andi	a5,a5,1
    c00004d4:	2781                	sext.w	a5,a5
    c00004d6:	c781                	beqz	a5,c00004de <number+0xa8>
    c00004d8:	03000793          	li	a5,48
    c00004dc:	a019                	j	c00004e2 <number+0xac>
    c00004de:	02000793          	li	a5,32
    c00004e2:	fcf403a3          	sb	a5,-57(s0)
  sign = 0;
    c00004e6:	fe0407a3          	sb	zero,-17(s0)
  if (type & SIGN)
    c00004ea:	f6042783          	lw	a5,-160(s0)
    c00004ee:	8b89                	andi	a5,a5,2
    c00004f0:	2781                	sext.w	a5,a5
    c00004f2:	c3b5                	beqz	a5,c0000556 <number+0x120>
  {
    if (num < 0)
    c00004f4:	f7043783          	ld	a5,-144(s0)
    c00004f8:	0207d263          	bgez	a5,c000051c <number+0xe6>
    {
      sign = '-';
    c00004fc:	02d00793          	li	a5,45
    c0000500:	fef407a3          	sb	a5,-17(s0)
      num = -num;
    c0000504:	f7043783          	ld	a5,-144(s0)
    c0000508:	40f007b3          	neg	a5,a5
    c000050c:	f6f43823          	sd	a5,-144(s0)
      size--;
    c0000510:	f6842783          	lw	a5,-152(s0)
    c0000514:	37fd                	addiw	a5,a5,-1
    c0000516:	f6f42423          	sw	a5,-152(s0)
    c000051a:	a835                	j	c0000556 <number+0x120>
    }
    else if (type & PLUS)
    c000051c:	f6042783          	lw	a5,-160(s0)
    c0000520:	8b91                	andi	a5,a5,4
    c0000522:	2781                	sext.w	a5,a5
    c0000524:	cb99                	beqz	a5,c000053a <number+0x104>
    {
      sign = '+';
    c0000526:	02b00793          	li	a5,43
    c000052a:	fef407a3          	sb	a5,-17(s0)
      size--;
    c000052e:	f6842783          	lw	a5,-152(s0)
    c0000532:	37fd                	addiw	a5,a5,-1
    c0000534:	f6f42423          	sw	a5,-152(s0)
    c0000538:	a839                	j	c0000556 <number+0x120>
    }
    else if (type & SPACE)
    c000053a:	f6042783          	lw	a5,-160(s0)
    c000053e:	8ba1                	andi	a5,a5,8
    c0000540:	2781                	sext.w	a5,a5
    c0000542:	cb91                	beqz	a5,c0000556 <number+0x120>
    {
      sign = ' ';
    c0000544:	02000793          	li	a5,32
    c0000548:	fef407a3          	sb	a5,-17(s0)
      size--;
    c000054c:	f6842783          	lw	a5,-152(s0)
    c0000550:	37fd                	addiw	a5,a5,-1
    c0000552:	f6f42423          	sw	a5,-152(s0)
    }
  }

  if (type & SPECIAL)
    c0000556:	f6042783          	lw	a5,-160(s0)
    c000055a:	0207f793          	andi	a5,a5,32
    c000055e:	2781                	sext.w	a5,a5
    c0000560:	cb95                	beqz	a5,c0000594 <number+0x15e>
  {
    if (base == 16)
    c0000562:	f6c42783          	lw	a5,-148(s0)
    c0000566:	0007871b          	sext.w	a4,a5
    c000056a:	47c1                	li	a5,16
    c000056c:	00f71863          	bne	a4,a5,c000057c <number+0x146>
      size -= 2;
    c0000570:	f6842783          	lw	a5,-152(s0)
    c0000574:	37f9                	addiw	a5,a5,-2
    c0000576:	f6f42423          	sw	a5,-152(s0)
    c000057a:	a829                	j	c0000594 <number+0x15e>
    else if (base == 8)
    c000057c:	f6c42783          	lw	a5,-148(s0)
    c0000580:	0007871b          	sext.w	a4,a5
    c0000584:	47a1                	li	a5,8
    c0000586:	00f71763          	bne	a4,a5,c0000594 <number+0x15e>
      size--;
    c000058a:	f6842783          	lw	a5,-152(s0)
    c000058e:	37fd                	addiw	a5,a5,-1
    c0000590:	f6f42423          	sw	a5,-152(s0)
  }

  i = 0;
    c0000594:	fc042e23          	sw	zero,-36(s0)

  if (num == 0)
    c0000598:	f7043783          	ld	a5,-144(s0)
    c000059c:	e3ad                	bnez	a5,c00005fe <number+0x1c8>
    tmp[i++] = '0';
    c000059e:	fdc42783          	lw	a5,-36(s0)
    c00005a2:	0017871b          	addiw	a4,a5,1
    c00005a6:	fce42e23          	sw	a4,-36(s0)
    c00005aa:	ff040713          	addi	a4,s0,-16
    c00005ae:	97ba                	add	a5,a5,a4
    c00005b0:	03000713          	li	a4,48
    c00005b4:	f8e78823          	sb	a4,-112(a5)
    c00005b8:	a0b1                	j	c0000604 <number+0x1ce>
  else
  {
    while (num != 0)
    {
      tmp[i++] = dig[((unsigned long) num) % (unsigned) base];
    c00005ba:	f7043703          	ld	a4,-144(s0)
    c00005be:	f6c42783          	lw	a5,-148(s0)
    c00005c2:	1782                	slli	a5,a5,0x20
    c00005c4:	9381                	srli	a5,a5,0x20
    c00005c6:	02f777b3          	remu	a5,a4,a5
    c00005ca:	fe043703          	ld	a4,-32(s0)
    c00005ce:	973e                	add	a4,a4,a5
    c00005d0:	fdc42783          	lw	a5,-36(s0)
    c00005d4:	0017869b          	addiw	a3,a5,1
    c00005d8:	fcd42e23          	sw	a3,-36(s0)
    c00005dc:	00074703          	lbu	a4,0(a4) # 2368000 <__lma_size+0x2358000>
    c00005e0:	ff040693          	addi	a3,s0,-16
    c00005e4:	97b6                	add	a5,a5,a3
    c00005e6:	f8e78823          	sb	a4,-112(a5)
      num = ((unsigned long) num) / (unsigned) base;
    c00005ea:	f7043703          	ld	a4,-144(s0)
    c00005ee:	f6c42783          	lw	a5,-148(s0)
    c00005f2:	1782                	slli	a5,a5,0x20
    c00005f4:	9381                	srli	a5,a5,0x20
    c00005f6:	02f757b3          	divu	a5,a4,a5
    c00005fa:	f6f43823          	sd	a5,-144(s0)
    while (num != 0)
    c00005fe:	f7043783          	ld	a5,-144(s0)
    c0000602:	ffc5                	bnez	a5,c00005ba <number+0x184>
    }
  }

  if (i > precision) precision = i;
    c0000604:	fdc42703          	lw	a4,-36(s0)
    c0000608:	f6442783          	lw	a5,-156(s0)
    c000060c:	2701                	sext.w	a4,a4
    c000060e:	2781                	sext.w	a5,a5
    c0000610:	00e7d663          	ble	a4,a5,c000061c <number+0x1e6>
    c0000614:	fdc42783          	lw	a5,-36(s0)
    c0000618:	f6f42223          	sw	a5,-156(s0)
  size -= precision;
    c000061c:	f6842703          	lw	a4,-152(s0)
    c0000620:	f6442783          	lw	a5,-156(s0)
    c0000624:	40f707bb          	subw	a5,a4,a5
    c0000628:	f6f42423          	sw	a5,-152(s0)
  if (!(type & (ZEROPAD | LEFT))) while (size-- > 0) *str++ = ' ';
    c000062c:	f6042783          	lw	a5,-160(s0)
    c0000630:	8bc5                	andi	a5,a5,17
    c0000632:	2781                	sext.w	a5,a5
    c0000634:	e785                	bnez	a5,c000065c <number+0x226>
    c0000636:	a819                	j	c000064c <number+0x216>
    c0000638:	f7843783          	ld	a5,-136(s0)
    c000063c:	00178713          	addi	a4,a5,1
    c0000640:	f6e43c23          	sd	a4,-136(s0)
    c0000644:	02000713          	li	a4,32
    c0000648:	00e78023          	sb	a4,0(a5)
    c000064c:	f6842783          	lw	a5,-152(s0)
    c0000650:	fff7871b          	addiw	a4,a5,-1
    c0000654:	f6e42423          	sw	a4,-152(s0)
    c0000658:	fef040e3          	bgtz	a5,c0000638 <number+0x202>
  if (sign) *str++ = sign;
    c000065c:	fef44783          	lbu	a5,-17(s0)
    c0000660:	0ff7f793          	andi	a5,a5,255
    c0000664:	cb99                	beqz	a5,c000067a <number+0x244>
    c0000666:	f7843783          	ld	a5,-136(s0)
    c000066a:	00178713          	addi	a4,a5,1
    c000066e:	f6e43c23          	sd	a4,-136(s0)
    c0000672:	fef44703          	lbu	a4,-17(s0)
    c0000676:	00e78023          	sb	a4,0(a5)

  if (type & SPECIAL)
    c000067a:	f6042783          	lw	a5,-160(s0)
    c000067e:	0207f793          	andi	a5,a5,32
    c0000682:	2781                	sext.w	a5,a5
    c0000684:	cfb1                	beqz	a5,c00006e0 <number+0x2aa>
  {
    if (base == 8)
    c0000686:	f6c42783          	lw	a5,-148(s0)
    c000068a:	0007871b          	sext.w	a4,a5
    c000068e:	47a1                	li	a5,8
    c0000690:	00f71d63          	bne	a4,a5,c00006aa <number+0x274>
      *str++ = '0';
    c0000694:	f7843783          	ld	a5,-136(s0)
    c0000698:	00178713          	addi	a4,a5,1
    c000069c:	f6e43c23          	sd	a4,-136(s0)
    c00006a0:	03000713          	li	a4,48
    c00006a4:	00e78023          	sb	a4,0(a5)
    c00006a8:	a825                	j	c00006e0 <number+0x2aa>
    else if (base == 16)
    c00006aa:	f6c42783          	lw	a5,-148(s0)
    c00006ae:	0007871b          	sext.w	a4,a5
    c00006b2:	47c1                	li	a5,16
    c00006b4:	02f71663          	bne	a4,a5,c00006e0 <number+0x2aa>
    {
      *str++ = '0';
    c00006b8:	f7843783          	ld	a5,-136(s0)
    c00006bc:	00178713          	addi	a4,a5,1
    c00006c0:	f6e43c23          	sd	a4,-136(s0)
    c00006c4:	03000713          	li	a4,48
    c00006c8:	00e78023          	sb	a4,0(a5)
      *str++ = 'x';
    c00006cc:	f7843783          	ld	a5,-136(s0)
    c00006d0:	00178713          	addi	a4,a5,1
    c00006d4:	f6e43c23          	sd	a4,-136(s0)
    c00006d8:	07800713          	li	a4,120
    c00006dc:	00e78023          	sb	a4,0(a5)
    }
  }

  if (!(type & LEFT)) while (size-- > 0) *str++ = c;
    c00006e0:	f6042783          	lw	a5,-160(s0)
    c00006e4:	8bc1                	andi	a5,a5,16
    c00006e6:	2781                	sext.w	a5,a5
    c00006e8:	ef9d                	bnez	a5,c0000726 <number+0x2f0>
    c00006ea:	a819                	j	c0000700 <number+0x2ca>
    c00006ec:	f7843783          	ld	a5,-136(s0)
    c00006f0:	00178713          	addi	a4,a5,1
    c00006f4:	f6e43c23          	sd	a4,-136(s0)
    c00006f8:	fc744703          	lbu	a4,-57(s0)
    c00006fc:	00e78023          	sb	a4,0(a5)
    c0000700:	f6842783          	lw	a5,-152(s0)
    c0000704:	fff7871b          	addiw	a4,a5,-1
    c0000708:	f6e42423          	sw	a4,-152(s0)
    c000070c:	fef040e3          	bgtz	a5,c00006ec <number+0x2b6>
  while (i < precision--) *str++ = '0';
    c0000710:	a819                	j	c0000726 <number+0x2f0>
    c0000712:	f7843783          	ld	a5,-136(s0)
    c0000716:	00178713          	addi	a4,a5,1
    c000071a:	f6e43c23          	sd	a4,-136(s0)
    c000071e:	03000713          	li	a4,48
    c0000722:	00e78023          	sb	a4,0(a5)
    c0000726:	f6442783          	lw	a5,-156(s0)
    c000072a:	fff7871b          	addiw	a4,a5,-1
    c000072e:	f6e42223          	sw	a4,-156(s0)
    c0000732:	fdc42703          	lw	a4,-36(s0)
    c0000736:	2701                	sext.w	a4,a4
    c0000738:	fcf74de3          	blt	a4,a5,c0000712 <number+0x2dc>
  while (i-- > 0) *str++ = tmp[i];
    c000073c:	a005                	j	c000075c <number+0x326>
    c000073e:	f7843783          	ld	a5,-136(s0)
    c0000742:	00178713          	addi	a4,a5,1
    c0000746:	f6e43c23          	sd	a4,-136(s0)
    c000074a:	fdc42703          	lw	a4,-36(s0)
    c000074e:	ff040693          	addi	a3,s0,-16
    c0000752:	9736                	add	a4,a4,a3
    c0000754:	f9074703          	lbu	a4,-112(a4)
    c0000758:	00e78023          	sb	a4,0(a5)
    c000075c:	fdc42783          	lw	a5,-36(s0)
    c0000760:	fff7871b          	addiw	a4,a5,-1
    c0000764:	fce42e23          	sw	a4,-36(s0)
    c0000768:	fcf04be3          	bgtz	a5,c000073e <number+0x308>
  while (size-- > 0) *str++ = ' ';
    c000076c:	a819                	j	c0000782 <number+0x34c>
    c000076e:	f7843783          	ld	a5,-136(s0)
    c0000772:	00178713          	addi	a4,a5,1
    c0000776:	f6e43c23          	sd	a4,-136(s0)
    c000077a:	02000713          	li	a4,32
    c000077e:	00e78023          	sb	a4,0(a5)
    c0000782:	f6842783          	lw	a5,-152(s0)
    c0000786:	fff7871b          	addiw	a4,a5,-1
    c000078a:	f6e42423          	sw	a4,-152(s0)
    c000078e:	fef040e3          	bgtz	a5,c000076e <number+0x338>

  return str;
    c0000792:	f7843783          	ld	a5,-136(s0)
}
    c0000796:	853e                	mv	a0,a5
    c0000798:	646a                	ld	s0,152(sp)
    c000079a:	610d                	addi	sp,sp,160
    c000079c:	8082                	ret

00000000c000079e <vsnprintf_>:

int vsnprintf_(char *buf, unsigned int size, const char *fmt, va_list args)
{
    c000079e:	7119                	addi	sp,sp,-128
    c00007a0:	fc86                	sd	ra,120(sp)
    c00007a2:	f8a2                	sd	s0,112(sp)
    c00007a4:	0100                	addi	s0,sp,128
    c00007a6:	f8a43c23          	sd	a0,-104(s0)
    c00007aa:	87ae                	mv	a5,a1
    c00007ac:	f8c43423          	sd	a2,-120(s0)
    c00007b0:	f8d43023          	sd	a3,-128(s0)
    c00007b4:	f8f42a23          	sw	a5,-108(s0)
  int field_width;
  int precision;
  int qualifier;


  size--;
    c00007b8:	f9442783          	lw	a5,-108(s0)
    c00007bc:	37fd                	addiw	a5,a5,-1
    c00007be:	f8f42a23          	sw	a5,-108(s0)
  for (str = buf; *fmt && size; ++fmt) {
    c00007c2:	f9843783          	ld	a5,-104(s0)
    c00007c6:	fcf43c23          	sd	a5,-40(s0)
    c00007ca:	a711                	j	c0000ece <vsnprintf_+0x730>
    if (*fmt != '%') {
    c00007cc:	f8843783          	ld	a5,-120(s0)
    c00007d0:	0007c783          	lbu	a5,0(a5)
    c00007d4:	873e                	mv	a4,a5
    c00007d6:	02500793          	li	a5,37
    c00007da:	02f70463          	beq	a4,a5,c0000802 <vsnprintf_+0x64>
      *str++ = *fmt;
    c00007de:	f8843703          	ld	a4,-120(s0)
    c00007e2:	fd843783          	ld	a5,-40(s0)
    c00007e6:	00178693          	addi	a3,a5,1
    c00007ea:	fcd43c23          	sd	a3,-40(s0)
    c00007ee:	00074703          	lbu	a4,0(a4)
    c00007f2:	00e78023          	sb	a4,0(a5)
      size--;
    c00007f6:	f9442783          	lw	a5,-108(s0)
    c00007fa:	37fd                	addiw	a5,a5,-1
    c00007fc:	f8f42a23          	sw	a5,-108(s0)
      continue;
    c0000800:	a5d1                	j	c0000ec4 <vsnprintf_+0x726>
    }

    flags = 0;
    c0000802:	fc042623          	sw	zero,-52(s0)
    dotflag = 0;
    c0000806:	fc042423          	sw	zero,-56(s0)
repeat:
    ++fmt;
    c000080a:	f8843783          	ld	a5,-120(s0)
    c000080e:	0785                	addi	a5,a5,1
    c0000810:	f8f43423          	sd	a5,-120(s0)
    switch (*fmt) {
    c0000814:	f8843783          	ld	a5,-120(s0)
    c0000818:	0007c783          	lbu	a5,0(a5)
    c000081c:	2781                	sext.w	a5,a5
    c000081e:	fe07869b          	addiw	a3,a5,-32
    c0000822:	0006871b          	sext.w	a4,a3
    c0000826:	47c1                	li	a5,16
    c0000828:	06e7e863          	bltu	a5,a4,c0000898 <vsnprintf_+0xfa>
    c000082c:	02069793          	slli	a5,a3,0x20
    c0000830:	9381                	srli	a5,a5,0x20
    c0000832:	00279713          	slli	a4,a5,0x2
    c0000836:	00004797          	auipc	a5,0x4
    c000083a:	90278793          	addi	a5,a5,-1790 # c0004138 <__text_e+0x58>
    c000083e:	97ba                	add	a5,a5,a4
    c0000840:	439c                	lw	a5,0(a5)
    c0000842:	0007871b          	sext.w	a4,a5
    c0000846:	00004797          	auipc	a5,0x4
    c000084a:	8f278793          	addi	a5,a5,-1806 # c0004138 <__text_e+0x58>
    c000084e:	97ba                	add	a5,a5,a4
    c0000850:	8782                	jr	a5
      case '-': flags |= LEFT; goto repeat;
    c0000852:	fcc42783          	lw	a5,-52(s0)
    c0000856:	0107e793          	ori	a5,a5,16
    c000085a:	fcf42623          	sw	a5,-52(s0)
    c000085e:	b775                	j	c000080a <vsnprintf_+0x6c>
      case '+': flags |= PLUS; goto repeat;
    c0000860:	fcc42783          	lw	a5,-52(s0)
    c0000864:	0047e793          	ori	a5,a5,4
    c0000868:	fcf42623          	sw	a5,-52(s0)
    c000086c:	bf79                	j	c000080a <vsnprintf_+0x6c>
      case ' ': flags |= SPACE; goto repeat;
    c000086e:	fcc42783          	lw	a5,-52(s0)
    c0000872:	0087e793          	ori	a5,a5,8
    c0000876:	fcf42623          	sw	a5,-52(s0)
    c000087a:	bf41                	j	c000080a <vsnprintf_+0x6c>
      case '#': flags |= SPECIAL; goto repeat;
    c000087c:	fcc42783          	lw	a5,-52(s0)
    c0000880:	0207e793          	ori	a5,a5,32
    c0000884:	fcf42623          	sw	a5,-52(s0)
    c0000888:	b749                	j	c000080a <vsnprintf_+0x6c>
      case '0': flags |= ZEROPAD; goto repeat;
    c000088a:	fcc42783          	lw	a5,-52(s0)
    c000088e:	0017e793          	ori	a5,a5,1
    c0000892:	fcf42623          	sw	a5,-52(s0)
    c0000896:	bf95                	j	c000080a <vsnprintf_+0x6c>
    }

    field_width = -1;
    c0000898:	57fd                	li	a5,-1
    c000089a:	fcf42223          	sw	a5,-60(s0)
    if (is_digit(*fmt))
    c000089e:	f8843783          	ld	a5,-120(s0)
    c00008a2:	0007c783          	lbu	a5,0(a5)
    c00008a6:	873e                	mv	a4,a5
    c00008a8:	02f00793          	li	a5,47
    c00008ac:	02e7f463          	bleu	a4,a5,c00008d4 <vsnprintf_+0x136>
    c00008b0:	f8843783          	ld	a5,-120(s0)
    c00008b4:	0007c783          	lbu	a5,0(a5)
    c00008b8:	873e                	mv	a4,a5
    c00008ba:	03900793          	li	a5,57
    c00008be:	00e7eb63          	bltu	a5,a4,c00008d4 <vsnprintf_+0x136>
      field_width = skip_atoi(&fmt);
    c00008c2:	f8840793          	addi	a5,s0,-120
    c00008c6:	853e                	mv	a0,a5
    c00008c8:	af5ff0ef          	jal	ra,c00003bc <skip_atoi>
    c00008cc:	87aa                	mv	a5,a0
    c00008ce:	fcf42223          	sw	a5,-60(s0)
    c00008d2:	a889                	j	c0000924 <vsnprintf_+0x186>
    else if (*fmt == '*') {
    c00008d4:	f8843783          	ld	a5,-120(s0)
    c00008d8:	0007c783          	lbu	a5,0(a5)
    c00008dc:	873e                	mv	a4,a5
    c00008de:	02a00793          	li	a5,42
    c00008e2:	04f71163          	bne	a4,a5,c0000924 <vsnprintf_+0x186>
      ++fmt;
    c00008e6:	f8843783          	ld	a5,-120(s0)
    c00008ea:	0785                	addi	a5,a5,1
    c00008ec:	f8f43423          	sd	a5,-120(s0)
      field_width = va_arg(args, int);
    c00008f0:	f8043783          	ld	a5,-128(s0)
    c00008f4:	00878713          	addi	a4,a5,8
    c00008f8:	f8e43023          	sd	a4,-128(s0)
    c00008fc:	439c                	lw	a5,0(a5)
    c00008fe:	fcf42223          	sw	a5,-60(s0)
      if (field_width < 0) {
    c0000902:	fc442783          	lw	a5,-60(s0)
    c0000906:	2781                	sext.w	a5,a5
    c0000908:	0007de63          	bgez	a5,c0000924 <vsnprintf_+0x186>
        field_width = -field_width;
    c000090c:	fc442783          	lw	a5,-60(s0)
    c0000910:	40f007bb          	negw	a5,a5
    c0000914:	fcf42223          	sw	a5,-60(s0)
        flags |= LEFT;
    c0000918:	fcc42783          	lw	a5,-52(s0)
    c000091c:	0107e793          	ori	a5,a5,16
    c0000920:	fcf42623          	sw	a5,-52(s0)
      }
    }

    precision = -1;
    c0000924:	57fd                	li	a5,-1
    c0000926:	fcf42023          	sw	a5,-64(s0)
    if (*fmt == '.') {
    c000092a:	f8843783          	ld	a5,-120(s0)
    c000092e:	0007c783          	lbu	a5,0(a5)
    c0000932:	873e                	mv	a4,a5
    c0000934:	02e00793          	li	a5,46
    c0000938:	06f71e63          	bne	a4,a5,c00009b4 <vsnprintf_+0x216>
      dotflag++;
    c000093c:	fc842783          	lw	a5,-56(s0)
    c0000940:	2785                	addiw	a5,a5,1
    c0000942:	fcf42423          	sw	a5,-56(s0)
      ++fmt;
    c0000946:	f8843783          	ld	a5,-120(s0)
    c000094a:	0785                	addi	a5,a5,1
    c000094c:	f8f43423          	sd	a5,-120(s0)
      if (is_digit(*fmt))
    c0000950:	f8843783          	ld	a5,-120(s0)
    c0000954:	0007c783          	lbu	a5,0(a5)
    c0000958:	873e                	mv	a4,a5
    c000095a:	02f00793          	li	a5,47
    c000095e:	02e7f463          	bleu	a4,a5,c0000986 <vsnprintf_+0x1e8>
    c0000962:	f8843783          	ld	a5,-120(s0)
    c0000966:	0007c783          	lbu	a5,0(a5)
    c000096a:	873e                	mv	a4,a5
    c000096c:	03900793          	li	a5,57
    c0000970:	00e7eb63          	bltu	a5,a4,c0000986 <vsnprintf_+0x1e8>
        precision = skip_atoi(&fmt);
    c0000974:	f8840793          	addi	a5,s0,-120
    c0000978:	853e                	mv	a0,a5
    c000097a:	a43ff0ef          	jal	ra,c00003bc <skip_atoi>
    c000097e:	87aa                	mv	a5,a0
    c0000980:	fcf42023          	sw	a5,-64(s0)
    c0000984:	a805                	j	c00009b4 <vsnprintf_+0x216>
      else if (*fmt == '*') {
    c0000986:	f8843783          	ld	a5,-120(s0)
    c000098a:	0007c783          	lbu	a5,0(a5)
    c000098e:	873e                	mv	a4,a5
    c0000990:	02a00793          	li	a5,42
    c0000994:	02f71063          	bne	a4,a5,c00009b4 <vsnprintf_+0x216>
        ++fmt;
    c0000998:	f8843783          	ld	a5,-120(s0)
    c000099c:	0785                	addi	a5,a5,1
    c000099e:	f8f43423          	sd	a5,-120(s0)
        precision = va_arg(args, int);
    c00009a2:	f8043783          	ld	a5,-128(s0)
    c00009a6:	00878713          	addi	a4,a5,8
    c00009aa:	f8e43023          	sd	a4,-128(s0)
    c00009ae:	439c                	lw	a5,0(a5)
    c00009b0:	fcf42023          	sw	a5,-64(s0)
      }
      /* NB: the default precision value is conversion dependent */
    }

    qualifier = -1;
    c00009b4:	57fd                	li	a5,-1
    c00009b6:	faf42e23          	sw	a5,-68(s0)
    if (*fmt == 'h' || *fmt == 'l' || *fmt == 'L' || *fmt == 'I') {
    c00009ba:	f8843783          	ld	a5,-120(s0)
    c00009be:	0007c783          	lbu	a5,0(a5)
    c00009c2:	873e                	mv	a4,a5
    c00009c4:	06800793          	li	a5,104
    c00009c8:	02f70d63          	beq	a4,a5,c0000a02 <vsnprintf_+0x264>
    c00009cc:	f8843783          	ld	a5,-120(s0)
    c00009d0:	0007c783          	lbu	a5,0(a5)
    c00009d4:	873e                	mv	a4,a5
    c00009d6:	06c00793          	li	a5,108
    c00009da:	02f70463          	beq	a4,a5,c0000a02 <vsnprintf_+0x264>
    c00009de:	f8843783          	ld	a5,-120(s0)
    c00009e2:	0007c783          	lbu	a5,0(a5)
    c00009e6:	873e                	mv	a4,a5
    c00009e8:	04c00793          	li	a5,76
    c00009ec:	00f70b63          	beq	a4,a5,c0000a02 <vsnprintf_+0x264>
    c00009f0:	f8843783          	ld	a5,-120(s0)
    c00009f4:	0007c783          	lbu	a5,0(a5)
    c00009f8:	873e                	mv	a4,a5
    c00009fa:	04900793          	li	a5,73
    c00009fe:	00f71d63          	bne	a4,a5,c0000a18 <vsnprintf_+0x27a>
      qualifier = *fmt;
    c0000a02:	f8843783          	ld	a5,-120(s0)
    c0000a06:	0007c783          	lbu	a5,0(a5)
    c0000a0a:	faf42e23          	sw	a5,-68(s0)
      ++fmt;
    c0000a0e:	f8843783          	ld	a5,-120(s0)
    c0000a12:	0785                	addi	a5,a5,1
    c0000a14:	f8f43423          	sd	a5,-120(s0)
    }

    switch (*fmt) {
    c0000a18:	f8843783          	ld	a5,-120(s0)
    c0000a1c:	0007c783          	lbu	a5,0(a5)
    c0000a20:	2781                	sext.w	a5,a5
    c0000a22:	fa87869b          	addiw	a3,a5,-88
    c0000a26:	0006871b          	sext.w	a4,a3
    c0000a2a:	02000793          	li	a5,32
    c0000a2e:	30e7e163          	bltu	a5,a4,c0000d30 <vsnprintf_+0x592>
    c0000a32:	02069793          	slli	a5,a3,0x20
    c0000a36:	9381                	srli	a5,a5,0x20
    c0000a38:	00279713          	slli	a4,a5,0x2
    c0000a3c:	00003797          	auipc	a5,0x3
    c0000a40:	74078793          	addi	a5,a5,1856 # c000417c <__text_e+0x9c>
    c0000a44:	97ba                	add	a5,a5,a4
    c0000a46:	439c                	lw	a5,0(a5)
    c0000a48:	0007871b          	sext.w	a4,a5
    c0000a4c:	00003797          	auipc	a5,0x3
    c0000a50:	73078793          	addi	a5,a5,1840 # c000417c <__text_e+0x9c>
    c0000a54:	97ba                	add	a5,a5,a4
    c0000a56:	8782                	jr	a5
    case 'c':
      if (!(flags & LEFT))
    c0000a58:	fcc42783          	lw	a5,-52(s0)
    c0000a5c:	8bc1                	andi	a5,a5,16
    c0000a5e:	2781                	sext.w	a5,a5
    c0000a60:	ef9d                	bnez	a5,c0000a9e <vsnprintf_+0x300>
      {
        while (--field_width > 0 && size)
    c0000a62:	a005                	j	c0000a82 <vsnprintf_+0x2e4>
        {
          *str++ = ' ';
    c0000a64:	fd843783          	ld	a5,-40(s0)
    c0000a68:	00178713          	addi	a4,a5,1
    c0000a6c:	fce43c23          	sd	a4,-40(s0)
    c0000a70:	02000713          	li	a4,32
    c0000a74:	00e78023          	sb	a4,0(a5)
          size--;
    c0000a78:	f9442783          	lw	a5,-108(s0)
    c0000a7c:	37fd                	addiw	a5,a5,-1
    c0000a7e:	f8f42a23          	sw	a5,-108(s0)
        while (--field_width > 0 && size)
    c0000a82:	fc442783          	lw	a5,-60(s0)
    c0000a86:	37fd                	addiw	a5,a5,-1
    c0000a88:	fcf42223          	sw	a5,-60(s0)
    c0000a8c:	fc442783          	lw	a5,-60(s0)
    c0000a90:	2781                	sext.w	a5,a5
    c0000a92:	00f05663          	blez	a5,c0000a9e <vsnprintf_+0x300>
    c0000a96:	f9442783          	lw	a5,-108(s0)
    c0000a9a:	2781                	sext.w	a5,a5
    c0000a9c:	f7e1                	bnez	a5,c0000a64 <vsnprintf_+0x2c6>
        }
      }
      if (size)
    c0000a9e:	f9442783          	lw	a5,-108(s0)
    c0000aa2:	2781                	sext.w	a5,a5
    c0000aa4:	c7b9                	beqz	a5,c0000af2 <vsnprintf_+0x354>
      {
        *str++ = (unsigned char)va_arg(args, int);
    c0000aa6:	f8043783          	ld	a5,-128(s0)
    c0000aaa:	00878713          	addi	a4,a5,8
    c0000aae:	f8e43023          	sd	a4,-128(s0)
    c0000ab2:	4394                	lw	a3,0(a5)
    c0000ab4:	fd843783          	ld	a5,-40(s0)
    c0000ab8:	00178713          	addi	a4,a5,1
    c0000abc:	fce43c23          	sd	a4,-40(s0)
    c0000ac0:	0ff6f713          	andi	a4,a3,255
    c0000ac4:	00e78023          	sb	a4,0(a5)
        size--;
    c0000ac8:	f9442783          	lw	a5,-108(s0)
    c0000acc:	37fd                	addiw	a5,a5,-1
    c0000ace:	f8f42a23          	sw	a5,-108(s0)
      }
      while (--field_width > 0 && size)
    c0000ad2:	a005                	j	c0000af2 <vsnprintf_+0x354>
      {
        *str++ = ' ';
    c0000ad4:	fd843783          	ld	a5,-40(s0)
    c0000ad8:	00178713          	addi	a4,a5,1
    c0000adc:	fce43c23          	sd	a4,-40(s0)
    c0000ae0:	02000713          	li	a4,32
    c0000ae4:	00e78023          	sb	a4,0(a5)
        size--;
    c0000ae8:	f9442783          	lw	a5,-108(s0)
    c0000aec:	37fd                	addiw	a5,a5,-1
    c0000aee:	f8f42a23          	sw	a5,-108(s0)
      while (--field_width > 0 && size)
    c0000af2:	fc442783          	lw	a5,-60(s0)
    c0000af6:	37fd                	addiw	a5,a5,-1
    c0000af8:	fcf42223          	sw	a5,-60(s0)
    c0000afc:	fc442783          	lw	a5,-60(s0)
    c0000b00:	2781                	sext.w	a5,a5
    c0000b02:	3af05e63          	blez	a5,c0000ebe <vsnprintf_+0x720>
    c0000b06:	f9442783          	lw	a5,-108(s0)
    c0000b0a:	2781                	sext.w	a5,a5
    c0000b0c:	f7e1                	bnez	a5,c0000ad4 <vsnprintf_+0x336>
      }
      continue;
    c0000b0e:	ae45                	j	c0000ebe <vsnprintf_+0x720>
    case 's':
      if (dotflag && precision < 0)
    c0000b10:	fc842783          	lw	a5,-56(s0)
    c0000b14:	2781                	sext.w	a5,a5
    c0000b16:	cb81                	beqz	a5,c0000b26 <vsnprintf_+0x388>
    c0000b18:	fc042783          	lw	a5,-64(s0)
    c0000b1c:	2781                	sext.w	a5,a5
    c0000b1e:	0007d463          	bgez	a5,c0000b26 <vsnprintf_+0x388>
        precision = 0;
    c0000b22:	fc042023          	sw	zero,-64(s0)
      s = va_arg(args, char *);
    c0000b26:	f8043783          	ld	a5,-128(s0)
    c0000b2a:	00878713          	addi	a4,a5,8
    c0000b2e:	f8e43023          	sd	a4,-128(s0)
    c0000b32:	639c                	ld	a5,0(a5)
    c0000b34:	fcf43823          	sd	a5,-48(s0)
      if(!s)
    c0000b38:	fd043783          	ld	a5,-48(s0)
    c0000b3c:	e799                	bnez	a5,c0000b4a <vsnprintf_+0x3ac>
        s = "(null)";
    c0000b3e:	00003797          	auipc	a5,0x3
    c0000b42:	5f278793          	addi	a5,a5,1522 # c0004130 <__text_e+0x50>
    c0000b46:	fcf43823          	sd	a5,-48(s0)

      len = strnlen(s, precision);
    c0000b4a:	fc042783          	lw	a5,-64(s0)
    c0000b4e:	85be                	mv	a1,a5
    c0000b50:	fd043503          	ld	a0,-48(s0)
    c0000b54:	574030ef          	jal	ra,c00040c8 <strnlen>
    c0000b58:	87aa                	mv	a5,a0
    c0000b5a:	faf42c23          	sw	a5,-72(s0)

      if(!(flags & LEFT))
    c0000b5e:	fcc42783          	lw	a5,-52(s0)
    c0000b62:	8bc1                	andi	a5,a5,16
    c0000b64:	2781                	sext.w	a5,a5
    c0000b66:	e3a1                	bnez	a5,c0000ba6 <vsnprintf_+0x408>
      {
        while(len < field_width-- && size)
    c0000b68:	a005                	j	c0000b88 <vsnprintf_+0x3ea>
        {
          *str++ = ' ';
    c0000b6a:	fd843783          	ld	a5,-40(s0)
    c0000b6e:	00178713          	addi	a4,a5,1
    c0000b72:	fce43c23          	sd	a4,-40(s0)
    c0000b76:	02000713          	li	a4,32
    c0000b7a:	00e78023          	sb	a4,0(a5)
          size--;
    c0000b7e:	f9442783          	lw	a5,-108(s0)
    c0000b82:	37fd                	addiw	a5,a5,-1
    c0000b84:	f8f42a23          	sw	a5,-108(s0)
        while(len < field_width-- && size)
    c0000b88:	fc442783          	lw	a5,-60(s0)
    c0000b8c:	fff7871b          	addiw	a4,a5,-1
    c0000b90:	fce42223          	sw	a4,-60(s0)
    c0000b94:	fb842703          	lw	a4,-72(s0)
    c0000b98:	2701                	sext.w	a4,a4
    c0000b9a:	00f75663          	ble	a5,a4,c0000ba6 <vsnprintf_+0x408>
    c0000b9e:	f9442783          	lw	a5,-108(s0)
    c0000ba2:	2781                	sext.w	a5,a5
    c0000ba4:	f3f9                	bnez	a5,c0000b6a <vsnprintf_+0x3cc>
        }
      }

      for(i = 0; i < len && size; ++i)
    c0000ba6:	fe042223          	sw	zero,-28(s0)
    c0000baa:	a81d                	j	c0000be0 <vsnprintf_+0x442>
      {
        *str++ = *s++;
    c0000bac:	fd043703          	ld	a4,-48(s0)
    c0000bb0:	00170793          	addi	a5,a4,1
    c0000bb4:	fcf43823          	sd	a5,-48(s0)
    c0000bb8:	fd843783          	ld	a5,-40(s0)
    c0000bbc:	00178693          	addi	a3,a5,1
    c0000bc0:	fcd43c23          	sd	a3,-40(s0)
    c0000bc4:	00074703          	lbu	a4,0(a4)
    c0000bc8:	00e78023          	sb	a4,0(a5)
        size--;
    c0000bcc:	f9442783          	lw	a5,-108(s0)
    c0000bd0:	37fd                	addiw	a5,a5,-1
    c0000bd2:	f8f42a23          	sw	a5,-108(s0)
      for(i = 0; i < len && size; ++i)
    c0000bd6:	fe442783          	lw	a5,-28(s0)
    c0000bda:	2785                	addiw	a5,a5,1
    c0000bdc:	fef42223          	sw	a5,-28(s0)
    c0000be0:	fe442703          	lw	a4,-28(s0)
    c0000be4:	fb842783          	lw	a5,-72(s0)
    c0000be8:	2701                	sext.w	a4,a4
    c0000bea:	2781                	sext.w	a5,a5
    c0000bec:	02f75663          	ble	a5,a4,c0000c18 <vsnprintf_+0x47a>
    c0000bf0:	f9442783          	lw	a5,-108(s0)
    c0000bf4:	2781                	sext.w	a5,a5
    c0000bf6:	fbdd                	bnez	a5,c0000bac <vsnprintf_+0x40e>
      }

      while(len < field_width-- && size)
    c0000bf8:	a005                	j	c0000c18 <vsnprintf_+0x47a>
      {
        *str++ = ' ';
    c0000bfa:	fd843783          	ld	a5,-40(s0)
    c0000bfe:	00178713          	addi	a4,a5,1
    c0000c02:	fce43c23          	sd	a4,-40(s0)
    c0000c06:	02000713          	li	a4,32
    c0000c0a:	00e78023          	sb	a4,0(a5)
        size--;
    c0000c0e:	f9442783          	lw	a5,-108(s0)
    c0000c12:	37fd                	addiw	a5,a5,-1
    c0000c14:	f8f42a23          	sw	a5,-108(s0)
      while(len < field_width-- && size)
    c0000c18:	fc442783          	lw	a5,-60(s0)
    c0000c1c:	fff7871b          	addiw	a4,a5,-1
    c0000c20:	fce42223          	sw	a4,-60(s0)
    c0000c24:	fb842703          	lw	a4,-72(s0)
    c0000c28:	2701                	sext.w	a4,a4
    c0000c2a:	28f75c63          	ble	a5,a4,c0000ec2 <vsnprintf_+0x724>
    c0000c2e:	f9442783          	lw	a5,-108(s0)
    c0000c32:	2781                	sext.w	a5,a5
    c0000c34:	f3f9                	bnez	a5,c0000bfa <vsnprintf_+0x45c>
      }
      continue;
    c0000c36:	a471                	j	c0000ec2 <vsnprintf_+0x724>

    case 'p':
      if (dotflag && precision < 0)
    c0000c38:	fc842783          	lw	a5,-56(s0)
    c0000c3c:	2781                	sext.w	a5,a5
    c0000c3e:	cb81                	beqz	a5,c0000c4e <vsnprintf_+0x4b0>
    c0000c40:	fc042783          	lw	a5,-64(s0)
    c0000c44:	2781                	sext.w	a5,a5
    c0000c46:	0007d463          	bgez	a5,c0000c4e <vsnprintf_+0x4b0>
        precision = 0;
    c0000c4a:	fc042023          	sw	zero,-64(s0)
      if (field_width == -1)
    c0000c4e:	fc442783          	lw	a5,-60(s0)
    c0000c52:	0007871b          	sext.w	a4,a5
    c0000c56:	57fd                	li	a5,-1
    c0000c58:	00f71b63          	bne	a4,a5,c0000c6e <vsnprintf_+0x4d0>
      {
        field_width = 2 * sizeof(void*);
    c0000c5c:	47c1                	li	a5,16
    c0000c5e:	fcf42223          	sw	a5,-60(s0)
        flags |= ZEROPAD;
    c0000c62:	fcc42783          	lw	a5,-52(s0)
    c0000c66:	0017e793          	ori	a5,a5,1
    c0000c6a:	fcf42623          	sw	a5,-52(s0)
      }
      str = number(str, (unsigned long)va_arg(args, void*), 16, field_width, precision, flags);
    c0000c6e:	f8043783          	ld	a5,-128(s0)
    c0000c72:	00878713          	addi	a4,a5,8
    c0000c76:	f8e43023          	sd	a4,-128(s0)
    c0000c7a:	639c                	ld	a5,0(a5)
    c0000c7c:	85be                	mv	a1,a5
    c0000c7e:	fcc42783          	lw	a5,-52(s0)
    c0000c82:	fc042703          	lw	a4,-64(s0)
    c0000c86:	fc442683          	lw	a3,-60(s0)
    c0000c8a:	4641                	li	a2,16
    c0000c8c:	fd843503          	ld	a0,-40(s0)
    c0000c90:	fa6ff0ef          	jal	ra,c0000436 <number>
    c0000c94:	fca43c23          	sd	a0,-40(s0)
      continue;
    c0000c98:	a435                	j	c0000ec4 <vsnprintf_+0x726>

    case 'n':
      if (qualifier == 'l')
    c0000c9a:	fbc42783          	lw	a5,-68(s0)
    c0000c9e:	0007871b          	sext.w	a4,a5
    c0000ca2:	06c00793          	li	a5,108
    c0000ca6:	02f71463          	bne	a4,a5,c0000cce <vsnprintf_+0x530>
      {
        long *ip = va_arg(args, long*);
    c0000caa:	f8043783          	ld	a5,-128(s0)
    c0000cae:	00878713          	addi	a4,a5,8
    c0000cb2:	f8e43023          	sd	a4,-128(s0)
    c0000cb6:	639c                	ld	a5,0(a5)
    c0000cb8:	faf43823          	sd	a5,-80(s0)
        *ip = (str - buf);
    c0000cbc:	fd843703          	ld	a4,-40(s0)
    c0000cc0:	f9843783          	ld	a5,-104(s0)
    c0000cc4:	8f1d                	sub	a4,a4,a5
    c0000cc6:	fb043783          	ld	a5,-80(s0)
    c0000cca:	e398                	sd	a4,0(a5)
      else
      {
        int *ip = va_arg(args, int*);
        *ip = (str - buf);
      }
      continue;
    c0000ccc:	aae5                	j	c0000ec4 <vsnprintf_+0x726>
        int *ip = va_arg(args, int*);
    c0000cce:	f8043783          	ld	a5,-128(s0)
    c0000cd2:	00878713          	addi	a4,a5,8
    c0000cd6:	f8e43023          	sd	a4,-128(s0)
    c0000cda:	639c                	ld	a5,0(a5)
    c0000cdc:	faf43423          	sd	a5,-88(s0)
        *ip = (str - buf);
    c0000ce0:	fd843703          	ld	a4,-40(s0)
    c0000ce4:	f9843783          	ld	a5,-104(s0)
    c0000ce8:	40f707b3          	sub	a5,a4,a5
    c0000cec:	0007871b          	sext.w	a4,a5
    c0000cf0:	fa843783          	ld	a5,-88(s0)
    c0000cf4:	c398                	sw	a4,0(a5)
      continue;
    c0000cf6:	a2f9                	j	c0000ec4 <vsnprintf_+0x726>

    case 'b':
      base = 2;
    c0000cf8:	4789                	li	a5,2
    c0000cfa:	fef42023          	sw	a5,-32(s0)
      break;
    c0000cfe:	a0cd                	j	c0000de0 <vsnprintf_+0x642>

    case 'o':
      base = 8;
    c0000d00:	47a1                	li	a5,8
    c0000d02:	fef42023          	sw	a5,-32(s0)
      break;
    c0000d06:	a8e9                	j	c0000de0 <vsnprintf_+0x642>

    case 'd':
    case 'i':
    case 'u':
      flags |= SIGN;
    c0000d08:	fcc42783          	lw	a5,-52(s0)
    c0000d0c:	0027e793          	ori	a5,a5,2
    c0000d10:	fcf42623          	sw	a5,-52(s0)
      base = 10;
    c0000d14:	47a9                	li	a5,10
    c0000d16:	fef42023          	sw	a5,-32(s0)
      break;
    c0000d1a:	a0d9                	j	c0000de0 <vsnprintf_+0x642>

    case 'X':
    case 'x':
      flags |= LARGE;
    c0000d1c:	fcc42783          	lw	a5,-52(s0)
    c0000d20:	0407e793          	ori	a5,a5,64
    c0000d24:	fcf42623          	sw	a5,-52(s0)
      base = 16;
    c0000d28:	47c1                	li	a5,16
    c0000d2a:	fef42023          	sw	a5,-32(s0)
      break;
    c0000d2e:	a84d                	j	c0000de0 <vsnprintf_+0x642>


    default:
      if (*fmt != '%' && size)
    c0000d30:	f8843783          	ld	a5,-120(s0)
    c0000d34:	0007c783          	lbu	a5,0(a5)
    c0000d38:	873e                	mv	a4,a5
    c0000d3a:	02500793          	li	a5,37
    c0000d3e:	02f70563          	beq	a4,a5,c0000d68 <vsnprintf_+0x5ca>
    c0000d42:	f9442783          	lw	a5,-108(s0)
    c0000d46:	2781                	sext.w	a5,a5
    c0000d48:	c385                	beqz	a5,c0000d68 <vsnprintf_+0x5ca>
      {
        *str++ = '%';
    c0000d4a:	fd843783          	ld	a5,-40(s0)
    c0000d4e:	00178713          	addi	a4,a5,1
    c0000d52:	fce43c23          	sd	a4,-40(s0)
    c0000d56:	02500713          	li	a4,37
    c0000d5a:	00e78023          	sb	a4,0(a5)
        size--;
    c0000d5e:	f9442783          	lw	a5,-108(s0)
    c0000d62:	37fd                	addiw	a5,a5,-1
    c0000d64:	f8f42a23          	sw	a5,-108(s0)
      }
      if(qualifier == 'l' && size)
    c0000d68:	fbc42783          	lw	a5,-68(s0)
    c0000d6c:	0007871b          	sext.w	a4,a5
    c0000d70:	06c00793          	li	a5,108
    c0000d74:	02f71563          	bne	a4,a5,c0000d9e <vsnprintf_+0x600>
    c0000d78:	f9442783          	lw	a5,-108(s0)
    c0000d7c:	2781                	sext.w	a5,a5
    c0000d7e:	c385                	beqz	a5,c0000d9e <vsnprintf_+0x600>
      {
        *str++ = 'l';
    c0000d80:	fd843783          	ld	a5,-40(s0)
    c0000d84:	00178713          	addi	a4,a5,1
    c0000d88:	fce43c23          	sd	a4,-40(s0)
    c0000d8c:	06c00713          	li	a4,108
    c0000d90:	00e78023          	sb	a4,0(a5)
        size--;
    c0000d94:	f9442783          	lw	a5,-108(s0)
    c0000d98:	37fd                	addiw	a5,a5,-1
    c0000d9a:	f8f42a23          	sw	a5,-108(s0)
      }
      if (*fmt && size)
    c0000d9e:	f8843783          	ld	a5,-120(s0)
    c0000da2:	0007c783          	lbu	a5,0(a5)
    c0000da6:	c79d                	beqz	a5,c0000dd4 <vsnprintf_+0x636>
    c0000da8:	f9442783          	lw	a5,-108(s0)
    c0000dac:	2781                	sext.w	a5,a5
    c0000dae:	c39d                	beqz	a5,c0000dd4 <vsnprintf_+0x636>
      {
        *str++ = *fmt;
    c0000db0:	f8843703          	ld	a4,-120(s0)
    c0000db4:	fd843783          	ld	a5,-40(s0)
    c0000db8:	00178693          	addi	a3,a5,1
    c0000dbc:	fcd43c23          	sd	a3,-40(s0)
    c0000dc0:	00074703          	lbu	a4,0(a4)
    c0000dc4:	00e78023          	sb	a4,0(a5)
        size--;
    c0000dc8:	f9442783          	lw	a5,-108(s0)
    c0000dcc:	37fd                	addiw	a5,a5,-1
    c0000dce:	f8f42a23          	sw	a5,-108(s0)
      else
      {
        --fmt;
      }

      continue;
    c0000dd2:	a8cd                	j	c0000ec4 <vsnprintf_+0x726>
        --fmt;
    c0000dd4:	f8843783          	ld	a5,-120(s0)
    c0000dd8:	17fd                	addi	a5,a5,-1
    c0000dda:	f8f43423          	sd	a5,-120(s0)
      continue;
    c0000dde:	a0dd                	j	c0000ec4 <vsnprintf_+0x726>
    }

    if(qualifier == 'l')
    c0000de0:	fbc42783          	lw	a5,-68(s0)
    c0000de4:	0007871b          	sext.w	a4,a5
    c0000de8:	06c00793          	li	a5,108
    c0000dec:	00f71c63          	bne	a4,a5,c0000e04 <vsnprintf_+0x666>
    {
      num = va_arg(args, unsigned long);
    c0000df0:	f8043783          	ld	a5,-128(s0)
    c0000df4:	00878713          	addi	a4,a5,8
    c0000df8:	f8e43023          	sd	a4,-128(s0)
    c0000dfc:	639c                	ld	a5,0(a5)
    c0000dfe:	fef43423          	sd	a5,-24(s0)
    c0000e02:	a051                	j	c0000e86 <vsnprintf_+0x6e8>
    }
    else if(qualifier == 'h')
    c0000e04:	fbc42783          	lw	a5,-68(s0)
    c0000e08:	0007871b          	sext.w	a4,a5
    c0000e0c:	06800793          	li	a5,104
    c0000e10:	04f71163          	bne	a4,a5,c0000e52 <vsnprintf_+0x6b4>
    {
      if(flags & SIGN)
    c0000e14:	fcc42783          	lw	a5,-52(s0)
    c0000e18:	8b89                	andi	a5,a5,2
    c0000e1a:	2781                	sext.w	a5,a5
    c0000e1c:	cf99                	beqz	a5,c0000e3a <vsnprintf_+0x69c>
      {
        num = (short)va_arg(args, int);
    c0000e1e:	f8043783          	ld	a5,-128(s0)
    c0000e22:	00878713          	addi	a4,a5,8
    c0000e26:	f8e43023          	sd	a4,-128(s0)
    c0000e2a:	439c                	lw	a5,0(a5)
    c0000e2c:	0107979b          	slliw	a5,a5,0x10
    c0000e30:	4107d79b          	sraiw	a5,a5,0x10
    c0000e34:	fef43423          	sd	a5,-24(s0)
    c0000e38:	a0b9                	j	c0000e86 <vsnprintf_+0x6e8>
      }
      else
      {
        num = (unsigned short)va_arg(args, unsigned);
    c0000e3a:	f8043783          	ld	a5,-128(s0)
    c0000e3e:	00878713          	addi	a4,a5,8
    c0000e42:	f8e43023          	sd	a4,-128(s0)
    c0000e46:	439c                	lw	a5,0(a5)
    c0000e48:	17c2                	slli	a5,a5,0x30
    c0000e4a:	93c1                	srli	a5,a5,0x30
    c0000e4c:	fef43423          	sd	a5,-24(s0)
    c0000e50:	a81d                	j	c0000e86 <vsnprintf_+0x6e8>
      }
    }
    else if(flags & SIGN)
    c0000e52:	fcc42783          	lw	a5,-52(s0)
    c0000e56:	8b89                	andi	a5,a5,2
    c0000e58:	2781                	sext.w	a5,a5
    c0000e5a:	cb99                	beqz	a5,c0000e70 <vsnprintf_+0x6d2>
    {
      num = va_arg(args, int);
    c0000e5c:	f8043783          	ld	a5,-128(s0)
    c0000e60:	00878713          	addi	a4,a5,8
    c0000e64:	f8e43023          	sd	a4,-128(s0)
    c0000e68:	439c                	lw	a5,0(a5)
    c0000e6a:	fef43423          	sd	a5,-24(s0)
    c0000e6e:	a821                	j	c0000e86 <vsnprintf_+0x6e8>
    }
    else
    {
      num = va_arg(args, unsigned int);
    c0000e70:	f8043783          	ld	a5,-128(s0)
    c0000e74:	00878713          	addi	a4,a5,8
    c0000e78:	f8e43023          	sd	a4,-128(s0)
    c0000e7c:	439c                	lw	a5,0(a5)
    c0000e7e:	1782                	slli	a5,a5,0x20
    c0000e80:	9381                	srli	a5,a5,0x20
    c0000e82:	fef43423          	sd	a5,-24(s0)
    }

    if(dotflag && precision < 0)
    c0000e86:	fc842783          	lw	a5,-56(s0)
    c0000e8a:	2781                	sext.w	a5,a5
    c0000e8c:	cb81                	beqz	a5,c0000e9c <vsnprintf_+0x6fe>
    c0000e8e:	fc042783          	lw	a5,-64(s0)
    c0000e92:	2781                	sext.w	a5,a5
    c0000e94:	0007d463          	bgez	a5,c0000e9c <vsnprintf_+0x6fe>
    {
      precision = 0;
    c0000e98:	fc042023          	sw	zero,-64(s0)
    }
    str = number(str, num, base, field_width, precision, flags);
    c0000e9c:	fe843583          	ld	a1,-24(s0)
    c0000ea0:	fcc42783          	lw	a5,-52(s0)
    c0000ea4:	fc042703          	lw	a4,-64(s0)
    c0000ea8:	fc442683          	lw	a3,-60(s0)
    c0000eac:	fe042603          	lw	a2,-32(s0)
    c0000eb0:	fd843503          	ld	a0,-40(s0)
    c0000eb4:	d82ff0ef          	jal	ra,c0000436 <number>
    c0000eb8:	fca43c23          	sd	a0,-40(s0)
    c0000ebc:	a021                	j	c0000ec4 <vsnprintf_+0x726>
      continue;
    c0000ebe:	0001                	nop
    c0000ec0:	a011                	j	c0000ec4 <vsnprintf_+0x726>
      continue;
    c0000ec2:	0001                	nop
  for (str = buf; *fmt && size; ++fmt) {
    c0000ec4:	f8843783          	ld	a5,-120(s0)
    c0000ec8:	0785                	addi	a5,a5,1
    c0000eca:	f8f43423          	sd	a5,-120(s0)
    c0000ece:	f8843783          	ld	a5,-120(s0)
    c0000ed2:	0007c783          	lbu	a5,0(a5)
    c0000ed6:	c791                	beqz	a5,c0000ee2 <vsnprintf_+0x744>
    c0000ed8:	f9442783          	lw	a5,-108(s0)
    c0000edc:	2781                	sext.w	a5,a5
    c0000ede:	8e0797e3          	bnez	a5,c00007cc <vsnprintf_+0x2e>
  }

  *str = '\0';
    c0000ee2:	fd843783          	ld	a5,-40(s0)
    c0000ee6:	00078023          	sb	zero,0(a5)
  return str - buf;
    c0000eea:	fd843703          	ld	a4,-40(s0)
    c0000eee:	f9843783          	ld	a5,-104(s0)
    c0000ef2:	40f707b3          	sub	a5,a4,a5
    c0000ef6:	2781                	sext.w	a5,a5
}
    c0000ef8:	853e                	mv	a0,a5
    c0000efa:	70e6                	ld	ra,120(sp)
    c0000efc:	7446                	ld	s0,112(sp)
    c0000efe:	6109                	addi	sp,sp,128
    c0000f00:	8082                	ret

00000000c0000f02 <_printf>:

int _printf(const char *format, ...)
{
    c0000f02:	b8010113          	addi	sp,sp,-1152 # 27b80 <__lma_size+0x17b80>
    c0000f06:	42113c23          	sd	ra,1080(sp)
    c0000f0a:	42813823          	sd	s0,1072(sp)
    c0000f0e:	44010413          	addi	s0,sp,1088
    c0000f12:	bca43423          	sd	a0,-1080(s0)
    c0000f16:	e40c                	sd	a1,8(s0)
    c0000f18:	e810                	sd	a2,16(s0)
    c0000f1a:	ec14                	sd	a3,24(s0)
    c0000f1c:	f018                	sd	a4,32(s0)
    c0000f1e:	f41c                	sd	a5,40(s0)
    c0000f20:	03043823          	sd	a6,48(s0)
    c0000f24:	03143c23          	sd	a7,56(s0)
  char buf[PRINTFBUF_SIZE], *pbuf;
  va_list args;
  va_start(args, format);
    c0000f28:	04040793          	addi	a5,s0,64
    c0000f2c:	fc878793          	addi	a5,a5,-56
    c0000f30:	bcf43c23          	sd	a5,-1064(s0)
    int len = vsnprintf_(buf, PRINTFBUF_SIZE, format, args);
    c0000f34:	bd843703          	ld	a4,-1064(s0)
    c0000f38:	be040793          	addi	a5,s0,-1056
    c0000f3c:	86ba                	mv	a3,a4
    c0000f3e:	bc843603          	ld	a2,-1080(s0)
    c0000f42:	40000593          	li	a1,1024
    c0000f46:	853e                	mv	a0,a5
    c0000f48:	857ff0ef          	jal	ra,c000079e <vsnprintf_>
    c0000f4c:	87aa                	mv	a5,a0
    c0000f4e:	fef42223          	sw	a5,-28(s0)
  va_end(args);

  pbuf = buf;
    c0000f52:	be040793          	addi	a5,s0,-1056
    c0000f56:	fef43423          	sd	a5,-24(s0)
  while(*pbuf){
    c0000f5a:	a805                	j	c0000f8a <_printf+0x88>
	if(*pbuf == '\n') Uart_Tx('\r');
    c0000f5c:	fe843783          	ld	a5,-24(s0)
    c0000f60:	0007c783          	lbu	a5,0(a5)
    c0000f64:	873e                	mv	a4,a5
    c0000f66:	47a9                	li	a5,10
    c0000f68:	00f71563          	bne	a4,a5,c0000f72 <_printf+0x70>
    c0000f6c:	4535                	li	a0,13
    c0000f6e:	c04ff0ef          	jal	ra,c0000372 <Uart_Tx>
	Uart_Tx(*pbuf++);
    c0000f72:	fe843783          	ld	a5,-24(s0)
    c0000f76:	00178713          	addi	a4,a5,1
    c0000f7a:	fee43423          	sd	a4,-24(s0)
    c0000f7e:	0007c783          	lbu	a5,0(a5)
    c0000f82:	2781                	sext.w	a5,a5
    c0000f84:	853e                	mv	a0,a5
    c0000f86:	becff0ef          	jal	ra,c0000372 <Uart_Tx>
  while(*pbuf){
    c0000f8a:	fe843783          	ld	a5,-24(s0)
    c0000f8e:	0007c783          	lbu	a5,0(a5)
    c0000f92:	f7e9                	bnez	a5,c0000f5c <_printf+0x5a>
  }
  return len;
    c0000f94:	fe442783          	lw	a5,-28(s0)
}
    c0000f98:	853e                	mv	a0,a5
    c0000f9a:	43813083          	ld	ra,1080(sp)
    c0000f9e:	43013403          	ld	s0,1072(sp)
    c0000fa2:	48010113          	addi	sp,sp,1152
    c0000fa6:	8082                	ret

00000000c0000fa8 <DdrMapTest>:

#define TEST_DDR0_SIZE DDR0_SIZE
//#define TEST_DDR0_SIZE 1*1024

char DdrMapTest(void)
{
    c0000fa8:	7179                	addi	sp,sp,-48
    c0000faa:	f406                	sd	ra,40(sp)
    c0000fac:	f022                	sd	s0,32(sp)
    c0000fae:	1800                	addi	s0,sp,48
	volatile ULONG *pDDR = (volatile ULONG *)DDR0_BASE;
    c0000fb0:	4785                	li	a5,1
    c0000fb2:	07fe                	slli	a5,a5,0x1f
    c0000fb4:	fef43423          	sd	a5,-24(s0)
	//printf("DDR MAP Test - Write\n");
	for(pDDR = (volatile ULONG *)DDR0_BASE; pDDR < (volatile ULONG *)(DDR0_BASE+TEST_DDR0_SIZE); pDDR++)
    c0000fb8:	4785                	li	a5,1
    c0000fba:	07fe                	slli	a5,a5,0x1f
    c0000fbc:	fef43423          	sd	a5,-24(s0)
    c0000fc0:	a805                	j	c0000ff0 <DdrMapTest+0x48>
	{
	  if ((ULONG)pDDR % 64 == 0) hwflush_dcache_range((ULONG)pDDR, 0x40);
    c0000fc2:	fe843783          	ld	a5,-24(s0)
    c0000fc6:	03f7f793          	andi	a5,a5,63
    c0000fca:	eb89                	bnez	a5,c0000fdc <DdrMapTest+0x34>
    c0000fcc:	fe843783          	ld	a5,-24(s0)
    c0000fd0:	2781                	sext.w	a5,a5
    c0000fd2:	04000593          	li	a1,64
    c0000fd6:	853e                	mv	a0,a5
    c0000fd8:	12e020ef          	jal	ra,c0003106 <hwflush_dcache_range>
	*pDDR = (ULONG)pDDR;
    c0000fdc:	fe843703          	ld	a4,-24(s0)
    c0000fe0:	fe843783          	ld	a5,-24(s0)
    c0000fe4:	e398                	sd	a4,0(a5)
	for(pDDR = (volatile ULONG *)DDR0_BASE; pDDR < (volatile ULONG *)(DDR0_BASE+TEST_DDR0_SIZE); pDDR++)
    c0000fe6:	fe843783          	ld	a5,-24(s0)
    c0000fea:	07a1                	addi	a5,a5,8
    c0000fec:	fef43423          	sd	a5,-24(s0)
    c0000ff0:	fe843703          	ld	a4,-24(s0)
    c0000ff4:	02100793          	li	a5,33
    c0000ff8:	07ea                	slli	a5,a5,0x1a
    c0000ffa:	fcf764e3          	bltu	a4,a5,c0000fc2 <DdrMapTest+0x1a>
	}
	ULONG ok = 0, fail = 0;
    c0000ffe:	fe043023          	sd	zero,-32(s0)
    c0001002:	fc043c23          	sd	zero,-40(s0)
	for(pDDR = (volatile ULONG *)DDR0_BASE; pDDR < (volatile ULONG *)(DDR0_BASE+TEST_DDR0_SIZE); pDDR++)
    c0001006:	4785                	li	a5,1
    c0001008:	07fe                	slli	a5,a5,0x1f
    c000100a:	fef43423          	sd	a5,-24(s0)
    c000100e:	a09d                	j	c0001074 <DdrMapTest+0xcc>
	{
		if ((ULONG)pDDR % 64 == 0) hwflush_dcache_range((ULONG)pDDR, 0x40);
    c0001010:	fe843783          	ld	a5,-24(s0)
    c0001014:	03f7f793          	andi	a5,a5,63
    c0001018:	eb89                	bnez	a5,c000102a <DdrMapTest+0x82>
    c000101a:	fe843783          	ld	a5,-24(s0)
    c000101e:	2781                	sext.w	a5,a5
    c0001020:	04000593          	li	a1,64
    c0001024:	853e                	mv	a0,a5
    c0001026:	0e0020ef          	jal	ra,c0003106 <hwflush_dcache_range>
		ULONG getdata = *pDDR;
    c000102a:	fe843783          	ld	a5,-24(s0)
    c000102e:	639c                	ld	a5,0(a5)
    c0001030:	fcf43823          	sd	a5,-48(s0)
		if (getdata != (ULONG)pDDR)
    c0001034:	fe843783          	ld	a5,-24(s0)
    c0001038:	fd043703          	ld	a4,-48(s0)
    c000103c:	02f70263          	beq	a4,a5,c0001060 <DdrMapTest+0xb8>
		{
                printf("DDR Test - X: %08lx 0x%08lx\n", pDDR, getdata);
    c0001040:	fd043603          	ld	a2,-48(s0)
    c0001044:	fe843583          	ld	a1,-24(s0)
    c0001048:	00003517          	auipc	a0,0x3
    c000104c:	1b850513          	addi	a0,a0,440 # c0004200 <__text_e+0x120>
    c0001050:	eb3ff0ef          	jal	ra,c0000f02 <_printf>
                fail++;
    c0001054:	fd843783          	ld	a5,-40(s0)
    c0001058:	0785                	addi	a5,a5,1
    c000105a:	fcf43c23          	sd	a5,-40(s0)
    c000105e:	a031                	j	c000106a <DdrMapTest+0xc2>
		}
		else
		{
			ok++;
    c0001060:	fe043783          	ld	a5,-32(s0)
    c0001064:	0785                	addi	a5,a5,1
    c0001066:	fef43023          	sd	a5,-32(s0)
	for(pDDR = (volatile ULONG *)DDR0_BASE; pDDR < (volatile ULONG *)(DDR0_BASE+TEST_DDR0_SIZE); pDDR++)
    c000106a:	fe843783          	ld	a5,-24(s0)
    c000106e:	07a1                	addi	a5,a5,8
    c0001070:	fef43423          	sd	a5,-24(s0)
    c0001074:	fe843703          	ld	a4,-24(s0)
    c0001078:	02100793          	li	a5,33
    c000107c:	07ea                	slli	a5,a5,0x1a
    c000107e:	f8f769e3          	bltu	a4,a5,c0001010 <DdrMapTest+0x68>
		}
     }
    printf("DDR Test - Done(O:%lu X:%lu)\n", ok, fail);
    c0001082:	fd843603          	ld	a2,-40(s0)
    c0001086:	fe043583          	ld	a1,-32(s0)
    c000108a:	00003517          	auipc	a0,0x3
    c000108e:	19650513          	addi	a0,a0,406 # c0004220 <__text_e+0x140>
    c0001092:	e71ff0ef          	jal	ra,c0000f02 <_printf>
	return ((fail)? 1 : 0);
    c0001096:	fd843783          	ld	a5,-40(s0)
    c000109a:	00f037b3          	snez	a5,a5
    c000109e:	0ff7f793          	andi	a5,a5,255
}
    c00010a2:	853e                	mv	a0,a5
    c00010a4:	70a2                	ld	ra,40(sp)
    c00010a6:	7402                	ld	s0,32(sp)
    c00010a8:	6145                	addi	sp,sp,48
    c00010aa:	8082                	ret

00000000c00010ac <DqG0OutDly>:

void DqG0OutDly(UINT var)
{
    c00010ac:	1101                	addi	sp,sp,-32
    c00010ae:	ec22                	sd	s0,24(sp)
    c00010b0:	1000                	addi	s0,sp,32
    c00010b2:	87aa                	mv	a5,a0
    c00010b4:	fef42623          	sw	a5,-20(s0)
	DDR0_DLY_DQ7OUT  = var;
    c00010b8:	403007b7          	lui	a5,0x40300
    c00010bc:	06878793          	addi	a5,a5,104 # 40300068 <__lma_size+0x402f0068>
    c00010c0:	fec42703          	lw	a4,-20(s0)
    c00010c4:	8b3d                	andi	a4,a4,15
    c00010c6:	0ff77713          	andi	a4,a4,255
    c00010ca:	01c7171b          	slliw	a4,a4,0x1c
    c00010ce:	4390                	lw	a2,0(a5)
    c00010d0:	100006b7          	lui	a3,0x10000
    c00010d4:	16fd                	addi	a3,a3,-1
    c00010d6:	8ef1                	and	a3,a3,a2
    c00010d8:	8f55                	or	a4,a4,a3
    c00010da:	c398                	sw	a4,0(a5)
	DDR0_DLY_DQ6OUT  = var;
    c00010dc:	403007b7          	lui	a5,0x40300
    c00010e0:	06878793          	addi	a5,a5,104 # 40300068 <__lma_size+0x402f0068>
    c00010e4:	fec42703          	lw	a4,-20(s0)
    c00010e8:	8b3d                	andi	a4,a4,15
    c00010ea:	0ff77713          	andi	a4,a4,255
    c00010ee:	8b3d                	andi	a4,a4,15
    c00010f0:	0187171b          	slliw	a4,a4,0x18
    c00010f4:	4390                	lw	a2,0(a5)
    c00010f6:	f10006b7          	lui	a3,0xf1000
    c00010fa:	16fd                	addi	a3,a3,-1
    c00010fc:	8ef1                	and	a3,a3,a2
    c00010fe:	8f55                	or	a4,a4,a3
    c0001100:	c398                	sw	a4,0(a5)
	DDR0_DLY_DQ5OUT  = var;
    c0001102:	403007b7          	lui	a5,0x40300
    c0001106:	06878793          	addi	a5,a5,104 # 40300068 <__lma_size+0x402f0068>
    c000110a:	fec42703          	lw	a4,-20(s0)
    c000110e:	8b3d                	andi	a4,a4,15
    c0001110:	0ff77713          	andi	a4,a4,255
    c0001114:	8b3d                	andi	a4,a4,15
    c0001116:	0147171b          	slliw	a4,a4,0x14
    c000111a:	4390                	lw	a2,0(a5)
    c000111c:	ff1006b7          	lui	a3,0xff100
    c0001120:	16fd                	addi	a3,a3,-1
    c0001122:	8ef1                	and	a3,a3,a2
    c0001124:	8f55                	or	a4,a4,a3
    c0001126:	c398                	sw	a4,0(a5)
	DDR0_DLY_DQ4OUT  = var;
    c0001128:	403007b7          	lui	a5,0x40300
    c000112c:	06878793          	addi	a5,a5,104 # 40300068 <__lma_size+0x402f0068>
    c0001130:	fec42703          	lw	a4,-20(s0)
    c0001134:	8b3d                	andi	a4,a4,15
    c0001136:	0ff77713          	andi	a4,a4,255
    c000113a:	8b3d                	andi	a4,a4,15
    c000113c:	0107171b          	slliw	a4,a4,0x10
    c0001140:	4390                	lw	a2,0(a5)
    c0001142:	fff106b7          	lui	a3,0xfff10
    c0001146:	16fd                	addi	a3,a3,-1
    c0001148:	8ef1                	and	a3,a3,a2
    c000114a:	8f55                	or	a4,a4,a3
    c000114c:	c398                	sw	a4,0(a5)
	DDR0_DLY_DQ3OUT  = var;
    c000114e:	403007b7          	lui	a5,0x40300
    c0001152:	06878793          	addi	a5,a5,104 # 40300068 <__lma_size+0x402f0068>
    c0001156:	fec42703          	lw	a4,-20(s0)
    c000115a:	8b3d                	andi	a4,a4,15
    c000115c:	0ff77713          	andi	a4,a4,255
    c0001160:	8b3d                	andi	a4,a4,15
    c0001162:	00c7171b          	slliw	a4,a4,0xc
    c0001166:	4390                	lw	a2,0(a5)
    c0001168:	76c5                	lui	a3,0xffff1
    c000116a:	16fd                	addi	a3,a3,-1
    c000116c:	8ef1                	and	a3,a3,a2
    c000116e:	8f55                	or	a4,a4,a3
    c0001170:	c398                	sw	a4,0(a5)
	DDR0_DLY_DQ2OUT  = var;
    c0001172:	403007b7          	lui	a5,0x40300
    c0001176:	06878793          	addi	a5,a5,104 # 40300068 <__lma_size+0x402f0068>
    c000117a:	fec42703          	lw	a4,-20(s0)
    c000117e:	8b3d                	andi	a4,a4,15
    c0001180:	0ff77713          	andi	a4,a4,255
    c0001184:	8b3d                	andi	a4,a4,15
    c0001186:	0087171b          	slliw	a4,a4,0x8
    c000118a:	4390                	lw	a2,0(a5)
    c000118c:	76fd                	lui	a3,0xfffff
    c000118e:	0ff68693          	addi	a3,a3,255 # fffffffffffff0ff <_bss_start+0xffffffff3ffef0ff>
    c0001192:	8ef1                	and	a3,a3,a2
    c0001194:	8f55                	or	a4,a4,a3
    c0001196:	c398                	sw	a4,0(a5)
	DDR0_DLY_DQ1OUT  = var;
    c0001198:	403007b7          	lui	a5,0x40300
    c000119c:	06878793          	addi	a5,a5,104 # 40300068 <__lma_size+0x402f0068>
    c00011a0:	fec42703          	lw	a4,-20(s0)
    c00011a4:	8b3d                	andi	a4,a4,15
    c00011a6:	0ff77713          	andi	a4,a4,255
    c00011aa:	8b3d                	andi	a4,a4,15
    c00011ac:	0047171b          	slliw	a4,a4,0x4
    c00011b0:	4394                	lw	a3,0(a5)
    c00011b2:	f0f6f693          	andi	a3,a3,-241
    c00011b6:	8f55                	or	a4,a4,a3
    c00011b8:	c398                	sw	a4,0(a5)
	DDR0_DLY_DQ0OUT  = var;
    c00011ba:	403007b7          	lui	a5,0x40300
    c00011be:	06878793          	addi	a5,a5,104 # 40300068 <__lma_size+0x402f0068>
    c00011c2:	fec42703          	lw	a4,-20(s0)
    c00011c6:	8b3d                	andi	a4,a4,15
    c00011c8:	0ff77713          	andi	a4,a4,255
    c00011cc:	00f77613          	andi	a2,a4,15
    c00011d0:	4398                	lw	a4,0(a5)
    c00011d2:	9b41                	andi	a4,a4,-16
    c00011d4:	86ba                	mv	a3,a4
    c00011d6:	8732                	mv	a4,a2
    c00011d8:	8f55                	or	a4,a4,a3
    c00011da:	c398                	sw	a4,0(a5)
}
    c00011dc:	0001                	nop
    c00011de:	6462                	ld	s0,24(sp)
    c00011e0:	6105                	addi	sp,sp,32
    c00011e2:	8082                	ret

00000000c00011e4 <DqG1OutDly>:
void DqG1OutDly(UINT var)
{
    c00011e4:	1101                	addi	sp,sp,-32
    c00011e6:	ec22                	sd	s0,24(sp)
    c00011e8:	1000                	addi	s0,sp,32
    c00011ea:	87aa                	mv	a5,a0
    c00011ec:	fef42623          	sw	a5,-20(s0)
	DDR0_DLY_DQ15OUT = var;
    c00011f0:	403007b7          	lui	a5,0x40300
    c00011f4:	07878793          	addi	a5,a5,120 # 40300078 <__lma_size+0x402f0078>
    c00011f8:	fec42703          	lw	a4,-20(s0)
    c00011fc:	8b3d                	andi	a4,a4,15
    c00011fe:	0ff77713          	andi	a4,a4,255
    c0001202:	01c7171b          	slliw	a4,a4,0x1c
    c0001206:	4390                	lw	a2,0(a5)
    c0001208:	100006b7          	lui	a3,0x10000
    c000120c:	16fd                	addi	a3,a3,-1
    c000120e:	8ef1                	and	a3,a3,a2
    c0001210:	8f55                	or	a4,a4,a3
    c0001212:	c398                	sw	a4,0(a5)
	DDR0_DLY_DQ14OUT = var;
    c0001214:	403007b7          	lui	a5,0x40300
    c0001218:	07878793          	addi	a5,a5,120 # 40300078 <__lma_size+0x402f0078>
    c000121c:	fec42703          	lw	a4,-20(s0)
    c0001220:	8b3d                	andi	a4,a4,15
    c0001222:	0ff77713          	andi	a4,a4,255
    c0001226:	8b3d                	andi	a4,a4,15
    c0001228:	0187171b          	slliw	a4,a4,0x18
    c000122c:	4390                	lw	a2,0(a5)
    c000122e:	f10006b7          	lui	a3,0xf1000
    c0001232:	16fd                	addi	a3,a3,-1
    c0001234:	8ef1                	and	a3,a3,a2
    c0001236:	8f55                	or	a4,a4,a3
    c0001238:	c398                	sw	a4,0(a5)
	DDR0_DLY_DQ13OUT = var;
    c000123a:	403007b7          	lui	a5,0x40300
    c000123e:	07878793          	addi	a5,a5,120 # 40300078 <__lma_size+0x402f0078>
    c0001242:	fec42703          	lw	a4,-20(s0)
    c0001246:	8b3d                	andi	a4,a4,15
    c0001248:	0ff77713          	andi	a4,a4,255
    c000124c:	8b3d                	andi	a4,a4,15
    c000124e:	0147171b          	slliw	a4,a4,0x14
    c0001252:	4390                	lw	a2,0(a5)
    c0001254:	ff1006b7          	lui	a3,0xff100
    c0001258:	16fd                	addi	a3,a3,-1
    c000125a:	8ef1                	and	a3,a3,a2
    c000125c:	8f55                	or	a4,a4,a3
    c000125e:	c398                	sw	a4,0(a5)
	DDR0_DLY_DQ12OUT = var;
    c0001260:	403007b7          	lui	a5,0x40300
    c0001264:	07878793          	addi	a5,a5,120 # 40300078 <__lma_size+0x402f0078>
    c0001268:	fec42703          	lw	a4,-20(s0)
    c000126c:	8b3d                	andi	a4,a4,15
    c000126e:	0ff77713          	andi	a4,a4,255
    c0001272:	8b3d                	andi	a4,a4,15
    c0001274:	0107171b          	slliw	a4,a4,0x10
    c0001278:	4390                	lw	a2,0(a5)
    c000127a:	fff106b7          	lui	a3,0xfff10
    c000127e:	16fd                	addi	a3,a3,-1
    c0001280:	8ef1                	and	a3,a3,a2
    c0001282:	8f55                	or	a4,a4,a3
    c0001284:	c398                	sw	a4,0(a5)
	DDR0_DLY_DQ11OUT = var;
    c0001286:	403007b7          	lui	a5,0x40300
    c000128a:	07878793          	addi	a5,a5,120 # 40300078 <__lma_size+0x402f0078>
    c000128e:	fec42703          	lw	a4,-20(s0)
    c0001292:	8b3d                	andi	a4,a4,15
    c0001294:	0ff77713          	andi	a4,a4,255
    c0001298:	8b3d                	andi	a4,a4,15
    c000129a:	00c7171b          	slliw	a4,a4,0xc
    c000129e:	4390                	lw	a2,0(a5)
    c00012a0:	76c5                	lui	a3,0xffff1
    c00012a2:	16fd                	addi	a3,a3,-1
    c00012a4:	8ef1                	and	a3,a3,a2
    c00012a6:	8f55                	or	a4,a4,a3
    c00012a8:	c398                	sw	a4,0(a5)
	DDR0_DLY_DQ10OUT = var;
    c00012aa:	403007b7          	lui	a5,0x40300
    c00012ae:	07878793          	addi	a5,a5,120 # 40300078 <__lma_size+0x402f0078>
    c00012b2:	fec42703          	lw	a4,-20(s0)
    c00012b6:	8b3d                	andi	a4,a4,15
    c00012b8:	0ff77713          	andi	a4,a4,255
    c00012bc:	8b3d                	andi	a4,a4,15
    c00012be:	0087171b          	slliw	a4,a4,0x8
    c00012c2:	4390                	lw	a2,0(a5)
    c00012c4:	76fd                	lui	a3,0xfffff
    c00012c6:	0ff68693          	addi	a3,a3,255 # fffffffffffff0ff <_bss_start+0xffffffff3ffef0ff>
    c00012ca:	8ef1                	and	a3,a3,a2
    c00012cc:	8f55                	or	a4,a4,a3
    c00012ce:	c398                	sw	a4,0(a5)
	DDR0_DLY_DQ9OUT  = var;
    c00012d0:	403007b7          	lui	a5,0x40300
    c00012d4:	07878793          	addi	a5,a5,120 # 40300078 <__lma_size+0x402f0078>
    c00012d8:	fec42703          	lw	a4,-20(s0)
    c00012dc:	8b3d                	andi	a4,a4,15
    c00012de:	0ff77713          	andi	a4,a4,255
    c00012e2:	8b3d                	andi	a4,a4,15
    c00012e4:	0047171b          	slliw	a4,a4,0x4
    c00012e8:	4394                	lw	a3,0(a5)
    c00012ea:	f0f6f693          	andi	a3,a3,-241
    c00012ee:	8f55                	or	a4,a4,a3
    c00012f0:	c398                	sw	a4,0(a5)
	DDR0_DLY_DQ8OUT  = var;
    c00012f2:	403007b7          	lui	a5,0x40300
    c00012f6:	07878793          	addi	a5,a5,120 # 40300078 <__lma_size+0x402f0078>
    c00012fa:	fec42703          	lw	a4,-20(s0)
    c00012fe:	8b3d                	andi	a4,a4,15
    c0001300:	0ff77713          	andi	a4,a4,255
    c0001304:	00f77613          	andi	a2,a4,15
    c0001308:	4398                	lw	a4,0(a5)
    c000130a:	9b41                	andi	a4,a4,-16
    c000130c:	86ba                	mv	a3,a4
    c000130e:	8732                	mv	a4,a2
    c0001310:	8f55                	or	a4,a4,a3
    c0001312:	c398                	sw	a4,0(a5)
}
    c0001314:	0001                	nop
    c0001316:	6462                	ld	s0,24(sp)
    c0001318:	6105                	addi	sp,sp,32
    c000131a:	8082                	ret

00000000c000131c <DqG2OutDly>:
void DqG2OutDly(UINT var)
{
    c000131c:	1101                	addi	sp,sp,-32
    c000131e:	ec22                	sd	s0,24(sp)
    c0001320:	1000                	addi	s0,sp,32
    c0001322:	87aa                	mv	a5,a0
    c0001324:	fef42623          	sw	a5,-20(s0)
	DDR0_DLY_DQ23OUT = var;
    c0001328:	403007b7          	lui	a5,0x40300
    c000132c:	08878793          	addi	a5,a5,136 # 40300088 <__lma_size+0x402f0088>
    c0001330:	fec42703          	lw	a4,-20(s0)
    c0001334:	8b3d                	andi	a4,a4,15
    c0001336:	0ff77713          	andi	a4,a4,255
    c000133a:	01c7171b          	slliw	a4,a4,0x1c
    c000133e:	4390                	lw	a2,0(a5)
    c0001340:	100006b7          	lui	a3,0x10000
    c0001344:	16fd                	addi	a3,a3,-1
    c0001346:	8ef1                	and	a3,a3,a2
    c0001348:	8f55                	or	a4,a4,a3
    c000134a:	c398                	sw	a4,0(a5)
	DDR0_DLY_DQ22OUT = var;
    c000134c:	403007b7          	lui	a5,0x40300
    c0001350:	08878793          	addi	a5,a5,136 # 40300088 <__lma_size+0x402f0088>
    c0001354:	fec42703          	lw	a4,-20(s0)
    c0001358:	8b3d                	andi	a4,a4,15
    c000135a:	0ff77713          	andi	a4,a4,255
    c000135e:	8b3d                	andi	a4,a4,15
    c0001360:	0187171b          	slliw	a4,a4,0x18
    c0001364:	4390                	lw	a2,0(a5)
    c0001366:	f10006b7          	lui	a3,0xf1000
    c000136a:	16fd                	addi	a3,a3,-1
    c000136c:	8ef1                	and	a3,a3,a2
    c000136e:	8f55                	or	a4,a4,a3
    c0001370:	c398                	sw	a4,0(a5)
	DDR0_DLY_DQ21OUT = var;
    c0001372:	403007b7          	lui	a5,0x40300
    c0001376:	08878793          	addi	a5,a5,136 # 40300088 <__lma_size+0x402f0088>
    c000137a:	fec42703          	lw	a4,-20(s0)
    c000137e:	8b3d                	andi	a4,a4,15
    c0001380:	0ff77713          	andi	a4,a4,255
    c0001384:	8b3d                	andi	a4,a4,15
    c0001386:	0147171b          	slliw	a4,a4,0x14
    c000138a:	4390                	lw	a2,0(a5)
    c000138c:	ff1006b7          	lui	a3,0xff100
    c0001390:	16fd                	addi	a3,a3,-1
    c0001392:	8ef1                	and	a3,a3,a2
    c0001394:	8f55                	or	a4,a4,a3
    c0001396:	c398                	sw	a4,0(a5)
	DDR0_DLY_DQ20OUT = var;
    c0001398:	403007b7          	lui	a5,0x40300
    c000139c:	08878793          	addi	a5,a5,136 # 40300088 <__lma_size+0x402f0088>
    c00013a0:	fec42703          	lw	a4,-20(s0)
    c00013a4:	8b3d                	andi	a4,a4,15
    c00013a6:	0ff77713          	andi	a4,a4,255
    c00013aa:	8b3d                	andi	a4,a4,15
    c00013ac:	0107171b          	slliw	a4,a4,0x10
    c00013b0:	4390                	lw	a2,0(a5)
    c00013b2:	fff106b7          	lui	a3,0xfff10
    c00013b6:	16fd                	addi	a3,a3,-1
    c00013b8:	8ef1                	and	a3,a3,a2
    c00013ba:	8f55                	or	a4,a4,a3
    c00013bc:	c398                	sw	a4,0(a5)
	DDR0_DLY_DQ19OUT = var;
    c00013be:	403007b7          	lui	a5,0x40300
    c00013c2:	08878793          	addi	a5,a5,136 # 40300088 <__lma_size+0x402f0088>
    c00013c6:	fec42703          	lw	a4,-20(s0)
    c00013ca:	8b3d                	andi	a4,a4,15
    c00013cc:	0ff77713          	andi	a4,a4,255
    c00013d0:	8b3d                	andi	a4,a4,15
    c00013d2:	00c7171b          	slliw	a4,a4,0xc
    c00013d6:	4390                	lw	a2,0(a5)
    c00013d8:	76c5                	lui	a3,0xffff1
    c00013da:	16fd                	addi	a3,a3,-1
    c00013dc:	8ef1                	and	a3,a3,a2
    c00013de:	8f55                	or	a4,a4,a3
    c00013e0:	c398                	sw	a4,0(a5)
	DDR0_DLY_DQ18OUT = var;
    c00013e2:	403007b7          	lui	a5,0x40300
    c00013e6:	08878793          	addi	a5,a5,136 # 40300088 <__lma_size+0x402f0088>
    c00013ea:	fec42703          	lw	a4,-20(s0)
    c00013ee:	8b3d                	andi	a4,a4,15
    c00013f0:	0ff77713          	andi	a4,a4,255
    c00013f4:	8b3d                	andi	a4,a4,15
    c00013f6:	0087171b          	slliw	a4,a4,0x8
    c00013fa:	4390                	lw	a2,0(a5)
    c00013fc:	76fd                	lui	a3,0xfffff
    c00013fe:	0ff68693          	addi	a3,a3,255 # fffffffffffff0ff <_bss_start+0xffffffff3ffef0ff>
    c0001402:	8ef1                	and	a3,a3,a2
    c0001404:	8f55                	or	a4,a4,a3
    c0001406:	c398                	sw	a4,0(a5)
	DDR0_DLY_DQ17OUT = var;
    c0001408:	403007b7          	lui	a5,0x40300
    c000140c:	08878793          	addi	a5,a5,136 # 40300088 <__lma_size+0x402f0088>
    c0001410:	fec42703          	lw	a4,-20(s0)
    c0001414:	8b3d                	andi	a4,a4,15
    c0001416:	0ff77713          	andi	a4,a4,255
    c000141a:	8b3d                	andi	a4,a4,15
    c000141c:	0047171b          	slliw	a4,a4,0x4
    c0001420:	4394                	lw	a3,0(a5)
    c0001422:	f0f6f693          	andi	a3,a3,-241
    c0001426:	8f55                	or	a4,a4,a3
    c0001428:	c398                	sw	a4,0(a5)
	DDR0_DLY_DQ16OUT = var;
    c000142a:	403007b7          	lui	a5,0x40300
    c000142e:	08878793          	addi	a5,a5,136 # 40300088 <__lma_size+0x402f0088>
    c0001432:	fec42703          	lw	a4,-20(s0)
    c0001436:	8b3d                	andi	a4,a4,15
    c0001438:	0ff77713          	andi	a4,a4,255
    c000143c:	00f77613          	andi	a2,a4,15
    c0001440:	4398                	lw	a4,0(a5)
    c0001442:	9b41                	andi	a4,a4,-16
    c0001444:	86ba                	mv	a3,a4
    c0001446:	8732                	mv	a4,a2
    c0001448:	8f55                	or	a4,a4,a3
    c000144a:	c398                	sw	a4,0(a5)
}
    c000144c:	0001                	nop
    c000144e:	6462                	ld	s0,24(sp)
    c0001450:	6105                	addi	sp,sp,32
    c0001452:	8082                	ret

00000000c0001454 <DqG3OutDly>:
void DqG3OutDly(UINT var)
{
    c0001454:	1101                	addi	sp,sp,-32
    c0001456:	ec22                	sd	s0,24(sp)
    c0001458:	1000                	addi	s0,sp,32
    c000145a:	87aa                	mv	a5,a0
    c000145c:	fef42623          	sw	a5,-20(s0)
	DDR0_DLY_DQ31OUT = var;
    c0001460:	403007b7          	lui	a5,0x40300
    c0001464:	09878793          	addi	a5,a5,152 # 40300098 <__lma_size+0x402f0098>
    c0001468:	fec42703          	lw	a4,-20(s0)
    c000146c:	8b3d                	andi	a4,a4,15
    c000146e:	0ff77713          	andi	a4,a4,255
    c0001472:	01c7171b          	slliw	a4,a4,0x1c
    c0001476:	4390                	lw	a2,0(a5)
    c0001478:	100006b7          	lui	a3,0x10000
    c000147c:	16fd                	addi	a3,a3,-1
    c000147e:	8ef1                	and	a3,a3,a2
    c0001480:	8f55                	or	a4,a4,a3
    c0001482:	c398                	sw	a4,0(a5)
	DDR0_DLY_DQ30OUT = var;
    c0001484:	403007b7          	lui	a5,0x40300
    c0001488:	09878793          	addi	a5,a5,152 # 40300098 <__lma_size+0x402f0098>
    c000148c:	fec42703          	lw	a4,-20(s0)
    c0001490:	8b3d                	andi	a4,a4,15
    c0001492:	0ff77713          	andi	a4,a4,255
    c0001496:	8b3d                	andi	a4,a4,15
    c0001498:	0187171b          	slliw	a4,a4,0x18
    c000149c:	4390                	lw	a2,0(a5)
    c000149e:	f10006b7          	lui	a3,0xf1000
    c00014a2:	16fd                	addi	a3,a3,-1
    c00014a4:	8ef1                	and	a3,a3,a2
    c00014a6:	8f55                	or	a4,a4,a3
    c00014a8:	c398                	sw	a4,0(a5)
	DDR0_DLY_DQ29OUT = var;
    c00014aa:	403007b7          	lui	a5,0x40300
    c00014ae:	09878793          	addi	a5,a5,152 # 40300098 <__lma_size+0x402f0098>
    c00014b2:	fec42703          	lw	a4,-20(s0)
    c00014b6:	8b3d                	andi	a4,a4,15
    c00014b8:	0ff77713          	andi	a4,a4,255
    c00014bc:	8b3d                	andi	a4,a4,15
    c00014be:	0147171b          	slliw	a4,a4,0x14
    c00014c2:	4390                	lw	a2,0(a5)
    c00014c4:	ff1006b7          	lui	a3,0xff100
    c00014c8:	16fd                	addi	a3,a3,-1
    c00014ca:	8ef1                	and	a3,a3,a2
    c00014cc:	8f55                	or	a4,a4,a3
    c00014ce:	c398                	sw	a4,0(a5)
	DDR0_DLY_DQ28OUT = var;
    c00014d0:	403007b7          	lui	a5,0x40300
    c00014d4:	09878793          	addi	a5,a5,152 # 40300098 <__lma_size+0x402f0098>
    c00014d8:	fec42703          	lw	a4,-20(s0)
    c00014dc:	8b3d                	andi	a4,a4,15
    c00014de:	0ff77713          	andi	a4,a4,255
    c00014e2:	8b3d                	andi	a4,a4,15
    c00014e4:	0107171b          	slliw	a4,a4,0x10
    c00014e8:	4390                	lw	a2,0(a5)
    c00014ea:	fff106b7          	lui	a3,0xfff10
    c00014ee:	16fd                	addi	a3,a3,-1
    c00014f0:	8ef1                	and	a3,a3,a2
    c00014f2:	8f55                	or	a4,a4,a3
    c00014f4:	c398                	sw	a4,0(a5)
	DDR0_DLY_DQ27OUT = var;
    c00014f6:	403007b7          	lui	a5,0x40300
    c00014fa:	09878793          	addi	a5,a5,152 # 40300098 <__lma_size+0x402f0098>
    c00014fe:	fec42703          	lw	a4,-20(s0)
    c0001502:	8b3d                	andi	a4,a4,15
    c0001504:	0ff77713          	andi	a4,a4,255
    c0001508:	8b3d                	andi	a4,a4,15
    c000150a:	00c7171b          	slliw	a4,a4,0xc
    c000150e:	4390                	lw	a2,0(a5)
    c0001510:	76c5                	lui	a3,0xffff1
    c0001512:	16fd                	addi	a3,a3,-1
    c0001514:	8ef1                	and	a3,a3,a2
    c0001516:	8f55                	or	a4,a4,a3
    c0001518:	c398                	sw	a4,0(a5)
	DDR0_DLY_DQ26OUT = var;
    c000151a:	403007b7          	lui	a5,0x40300
    c000151e:	09878793          	addi	a5,a5,152 # 40300098 <__lma_size+0x402f0098>
    c0001522:	fec42703          	lw	a4,-20(s0)
    c0001526:	8b3d                	andi	a4,a4,15
    c0001528:	0ff77713          	andi	a4,a4,255
    c000152c:	8b3d                	andi	a4,a4,15
    c000152e:	0087171b          	slliw	a4,a4,0x8
    c0001532:	4390                	lw	a2,0(a5)
    c0001534:	76fd                	lui	a3,0xfffff
    c0001536:	0ff68693          	addi	a3,a3,255 # fffffffffffff0ff <_bss_start+0xffffffff3ffef0ff>
    c000153a:	8ef1                	and	a3,a3,a2
    c000153c:	8f55                	or	a4,a4,a3
    c000153e:	c398                	sw	a4,0(a5)
	DDR0_DLY_DQ25OUT = var;
    c0001540:	403007b7          	lui	a5,0x40300
    c0001544:	09878793          	addi	a5,a5,152 # 40300098 <__lma_size+0x402f0098>
    c0001548:	fec42703          	lw	a4,-20(s0)
    c000154c:	8b3d                	andi	a4,a4,15
    c000154e:	0ff77713          	andi	a4,a4,255
    c0001552:	8b3d                	andi	a4,a4,15
    c0001554:	0047171b          	slliw	a4,a4,0x4
    c0001558:	4394                	lw	a3,0(a5)
    c000155a:	f0f6f693          	andi	a3,a3,-241
    c000155e:	8f55                	or	a4,a4,a3
    c0001560:	c398                	sw	a4,0(a5)
	DDR0_DLY_DQ24OUT = var;
    c0001562:	403007b7          	lui	a5,0x40300
    c0001566:	09878793          	addi	a5,a5,152 # 40300098 <__lma_size+0x402f0098>
    c000156a:	fec42703          	lw	a4,-20(s0)
    c000156e:	8b3d                	andi	a4,a4,15
    c0001570:	0ff77713          	andi	a4,a4,255
    c0001574:	00f77613          	andi	a2,a4,15
    c0001578:	4398                	lw	a4,0(a5)
    c000157a:	9b41                	andi	a4,a4,-16
    c000157c:	86ba                	mv	a3,a4
    c000157e:	8732                	mv	a4,a2
    c0001580:	8f55                	or	a4,a4,a3
    c0001582:	c398                	sw	a4,0(a5)
}
    c0001584:	0001                	nop
    c0001586:	6462                	ld	s0,24(sp)
    c0001588:	6105                	addi	sp,sp,32
    c000158a:	8082                	ret

00000000c000158c <DqOutDly>:
void DqOutDly(UINT var)
{
    c000158c:	1101                	addi	sp,sp,-32
    c000158e:	ec06                	sd	ra,24(sp)
    c0001590:	e822                	sd	s0,16(sp)
    c0001592:	1000                	addi	s0,sp,32
    c0001594:	87aa                	mv	a5,a0
    c0001596:	fef42623          	sw	a5,-20(s0)
	DqG0OutDly(var);
    c000159a:	fec42783          	lw	a5,-20(s0)
    c000159e:	853e                	mv	a0,a5
    c00015a0:	b0dff0ef          	jal	ra,c00010ac <DqG0OutDly>
	DqG1OutDly(var);
    c00015a4:	fec42783          	lw	a5,-20(s0)
    c00015a8:	853e                	mv	a0,a5
    c00015aa:	c3bff0ef          	jal	ra,c00011e4 <DqG1OutDly>
	DqG2OutDly(var);
    c00015ae:	fec42783          	lw	a5,-20(s0)
    c00015b2:	853e                	mv	a0,a5
    c00015b4:	d69ff0ef          	jal	ra,c000131c <DqG2OutDly>
	DqG3OutDly(var);
    c00015b8:	fec42783          	lw	a5,-20(s0)
    c00015bc:	853e                	mv	a0,a5
    c00015be:	e97ff0ef          	jal	ra,c0001454 <DqG3OutDly>
}
    c00015c2:	0001                	nop
    c00015c4:	60e2                	ld	ra,24(sp)
    c00015c6:	6442                	ld	s0,16(sp)
    c00015c8:	6105                	addi	sp,sp,32
    c00015ca:	8082                	ret

00000000c00015cc <DmOutDly>:
void DmOutDly(UINT var)
{
    c00015cc:	1101                	addi	sp,sp,-32
    c00015ce:	ec22                	sd	s0,24(sp)
    c00015d0:	1000                	addi	s0,sp,32
    c00015d2:	87aa                	mv	a5,a0
    c00015d4:	fef42623          	sw	a5,-20(s0)
	DDR0_DLY_DM0OUT  = var;
    c00015d8:	403007b7          	lui	a5,0x40300
    c00015dc:	06078793          	addi	a5,a5,96 # 40300060 <__lma_size+0x402f0060>
    c00015e0:	fec42703          	lw	a4,-20(s0)
    c00015e4:	8b3d                	andi	a4,a4,15
    c00015e6:	0ff77713          	andi	a4,a4,255
    c00015ea:	00f77613          	andi	a2,a4,15
    c00015ee:	4398                	lw	a4,0(a5)
    c00015f0:	9b41                	andi	a4,a4,-16
    c00015f2:	86ba                	mv	a3,a4
    c00015f4:	8732                	mv	a4,a2
    c00015f6:	8f55                	or	a4,a4,a3
    c00015f8:	c398                	sw	a4,0(a5)
	DDR0_DLY_DM1OUT  = var;
    c00015fa:	403007b7          	lui	a5,0x40300
    c00015fe:	07078793          	addi	a5,a5,112 # 40300070 <__lma_size+0x402f0070>
    c0001602:	fec42703          	lw	a4,-20(s0)
    c0001606:	8b3d                	andi	a4,a4,15
    c0001608:	0ff77713          	andi	a4,a4,255
    c000160c:	00f77613          	andi	a2,a4,15
    c0001610:	4398                	lw	a4,0(a5)
    c0001612:	9b41                	andi	a4,a4,-16
    c0001614:	86ba                	mv	a3,a4
    c0001616:	8732                	mv	a4,a2
    c0001618:	8f55                	or	a4,a4,a3
    c000161a:	c398                	sw	a4,0(a5)
	DDR0_DLY_DM2OUT  = var;
    c000161c:	403007b7          	lui	a5,0x40300
    c0001620:	08078793          	addi	a5,a5,128 # 40300080 <__lma_size+0x402f0080>
    c0001624:	fec42703          	lw	a4,-20(s0)
    c0001628:	8b3d                	andi	a4,a4,15
    c000162a:	0ff77713          	andi	a4,a4,255
    c000162e:	00f77613          	andi	a2,a4,15
    c0001632:	4398                	lw	a4,0(a5)
    c0001634:	9b41                	andi	a4,a4,-16
    c0001636:	86ba                	mv	a3,a4
    c0001638:	8732                	mv	a4,a2
    c000163a:	8f55                	or	a4,a4,a3
    c000163c:	c398                	sw	a4,0(a5)
	DDR0_DLY_DM3OUT  = var;
    c000163e:	403007b7          	lui	a5,0x40300
    c0001642:	09078793          	addi	a5,a5,144 # 40300090 <__lma_size+0x402f0090>
    c0001646:	fec42703          	lw	a4,-20(s0)
    c000164a:	8b3d                	andi	a4,a4,15
    c000164c:	0ff77713          	andi	a4,a4,255
    c0001650:	00f77613          	andi	a2,a4,15
    c0001654:	4398                	lw	a4,0(a5)
    c0001656:	9b41                	andi	a4,a4,-16
    c0001658:	86ba                	mv	a3,a4
    c000165a:	8732                	mv	a4,a2
    c000165c:	8f55                	or	a4,a4,a3
    c000165e:	c398                	sw	a4,0(a5)
}
    c0001660:	0001                	nop
    c0001662:	6462                	ld	s0,24(sp)
    c0001664:	6105                	addi	sp,sp,32
    c0001666:	8082                	ret

00000000c0001668 <CaOutDly>:
void CaOutDly(int var)
{
    c0001668:	1101                	addi	sp,sp,-32
    c000166a:	ec22                	sd	s0,24(sp)
    c000166c:	1000                	addi	s0,sp,32
    c000166e:	87aa                	mv	a5,a0
    c0001670:	fef42623          	sw	a5,-20(s0)
	DDR0_DLY_CA9OUT  = var;
    c0001674:	403007b7          	lui	a5,0x40300
    c0001678:	05078793          	addi	a5,a5,80 # 40300050 <__lma_size+0x402f0050>
    c000167c:	fec42703          	lw	a4,-20(s0)
    c0001680:	8b3d                	andi	a4,a4,15
    c0001682:	0ff77713          	andi	a4,a4,255
    c0001686:	8b3d                	andi	a4,a4,15
    c0001688:	0047171b          	slliw	a4,a4,0x4
    c000168c:	4394                	lw	a3,0(a5)
    c000168e:	f0f6f693          	andi	a3,a3,-241
    c0001692:	8f55                	or	a4,a4,a3
    c0001694:	c398                	sw	a4,0(a5)
	DDR0_DLY_CA8OUT  = var;
    c0001696:	403007b7          	lui	a5,0x40300
    c000169a:	05078793          	addi	a5,a5,80 # 40300050 <__lma_size+0x402f0050>
    c000169e:	fec42703          	lw	a4,-20(s0)
    c00016a2:	8b3d                	andi	a4,a4,15
    c00016a4:	0ff77713          	andi	a4,a4,255
    c00016a8:	00f77613          	andi	a2,a4,15
    c00016ac:	4398                	lw	a4,0(a5)
    c00016ae:	9b41                	andi	a4,a4,-16
    c00016b0:	86ba                	mv	a3,a4
    c00016b2:	8732                	mv	a4,a2
    c00016b4:	8f55                	or	a4,a4,a3
    c00016b6:	c398                	sw	a4,0(a5)
	DDR0_DLY_CA7OUT  = var;
    c00016b8:	403007b7          	lui	a5,0x40300
    c00016bc:	05878793          	addi	a5,a5,88 # 40300058 <__lma_size+0x402f0058>
    c00016c0:	fec42703          	lw	a4,-20(s0)
    c00016c4:	8b3d                	andi	a4,a4,15
    c00016c6:	0ff77713          	andi	a4,a4,255
    c00016ca:	01c7171b          	slliw	a4,a4,0x1c
    c00016ce:	4390                	lw	a2,0(a5)
    c00016d0:	100006b7          	lui	a3,0x10000
    c00016d4:	16fd                	addi	a3,a3,-1
    c00016d6:	8ef1                	and	a3,a3,a2
    c00016d8:	8f55                	or	a4,a4,a3
    c00016da:	c398                	sw	a4,0(a5)
	DDR0_DLY_CA6OUT  = var;
    c00016dc:	403007b7          	lui	a5,0x40300
    c00016e0:	05878793          	addi	a5,a5,88 # 40300058 <__lma_size+0x402f0058>
    c00016e4:	fec42703          	lw	a4,-20(s0)
    c00016e8:	8b3d                	andi	a4,a4,15
    c00016ea:	0ff77713          	andi	a4,a4,255
    c00016ee:	8b3d                	andi	a4,a4,15
    c00016f0:	0187171b          	slliw	a4,a4,0x18
    c00016f4:	4390                	lw	a2,0(a5)
    c00016f6:	f10006b7          	lui	a3,0xf1000
    c00016fa:	16fd                	addi	a3,a3,-1
    c00016fc:	8ef1                	and	a3,a3,a2
    c00016fe:	8f55                	or	a4,a4,a3
    c0001700:	c398                	sw	a4,0(a5)
	DDR0_DLY_CA5OUT  = var;
    c0001702:	403007b7          	lui	a5,0x40300
    c0001706:	05878793          	addi	a5,a5,88 # 40300058 <__lma_size+0x402f0058>
    c000170a:	fec42703          	lw	a4,-20(s0)
    c000170e:	8b3d                	andi	a4,a4,15
    c0001710:	0ff77713          	andi	a4,a4,255
    c0001714:	8b3d                	andi	a4,a4,15
    c0001716:	0147171b          	slliw	a4,a4,0x14
    c000171a:	4390                	lw	a2,0(a5)
    c000171c:	ff1006b7          	lui	a3,0xff100
    c0001720:	16fd                	addi	a3,a3,-1
    c0001722:	8ef1                	and	a3,a3,a2
    c0001724:	8f55                	or	a4,a4,a3
    c0001726:	c398                	sw	a4,0(a5)
	DDR0_DLY_CA4OUT  = var;
    c0001728:	403007b7          	lui	a5,0x40300
    c000172c:	05878793          	addi	a5,a5,88 # 40300058 <__lma_size+0x402f0058>
    c0001730:	fec42703          	lw	a4,-20(s0)
    c0001734:	8b3d                	andi	a4,a4,15
    c0001736:	0ff77713          	andi	a4,a4,255
    c000173a:	8b3d                	andi	a4,a4,15
    c000173c:	0107171b          	slliw	a4,a4,0x10
    c0001740:	4390                	lw	a2,0(a5)
    c0001742:	fff106b7          	lui	a3,0xfff10
    c0001746:	16fd                	addi	a3,a3,-1
    c0001748:	8ef1                	and	a3,a3,a2
    c000174a:	8f55                	or	a4,a4,a3
    c000174c:	c398                	sw	a4,0(a5)
	DDR0_DLY_CA3OUT  = var;
    c000174e:	403007b7          	lui	a5,0x40300
    c0001752:	05878793          	addi	a5,a5,88 # 40300058 <__lma_size+0x402f0058>
    c0001756:	fec42703          	lw	a4,-20(s0)
    c000175a:	8b3d                	andi	a4,a4,15
    c000175c:	0ff77713          	andi	a4,a4,255
    c0001760:	8b3d                	andi	a4,a4,15
    c0001762:	00c7171b          	slliw	a4,a4,0xc
    c0001766:	4390                	lw	a2,0(a5)
    c0001768:	76c5                	lui	a3,0xffff1
    c000176a:	16fd                	addi	a3,a3,-1
    c000176c:	8ef1                	and	a3,a3,a2
    c000176e:	8f55                	or	a4,a4,a3
    c0001770:	c398                	sw	a4,0(a5)
	DDR0_DLY_CA2OUT  = var;
    c0001772:	403007b7          	lui	a5,0x40300
    c0001776:	05878793          	addi	a5,a5,88 # 40300058 <__lma_size+0x402f0058>
    c000177a:	fec42703          	lw	a4,-20(s0)
    c000177e:	8b3d                	andi	a4,a4,15
    c0001780:	0ff77713          	andi	a4,a4,255
    c0001784:	8b3d                	andi	a4,a4,15
    c0001786:	0087171b          	slliw	a4,a4,0x8
    c000178a:	4390                	lw	a2,0(a5)
    c000178c:	76fd                	lui	a3,0xfffff
    c000178e:	0ff68693          	addi	a3,a3,255 # fffffffffffff0ff <_bss_start+0xffffffff3ffef0ff>
    c0001792:	8ef1                	and	a3,a3,a2
    c0001794:	8f55                	or	a4,a4,a3
    c0001796:	c398                	sw	a4,0(a5)
	DDR0_DLY_CA1OUT  = var;
    c0001798:	403007b7          	lui	a5,0x40300
    c000179c:	05878793          	addi	a5,a5,88 # 40300058 <__lma_size+0x402f0058>
    c00017a0:	fec42703          	lw	a4,-20(s0)
    c00017a4:	8b3d                	andi	a4,a4,15
    c00017a6:	0ff77713          	andi	a4,a4,255
    c00017aa:	8b3d                	andi	a4,a4,15
    c00017ac:	0047171b          	slliw	a4,a4,0x4
    c00017b0:	4394                	lw	a3,0(a5)
    c00017b2:	f0f6f693          	andi	a3,a3,-241
    c00017b6:	8f55                	or	a4,a4,a3
    c00017b8:	c398                	sw	a4,0(a5)
	DDR0_DLY_CA0OUT  = var;
    c00017ba:	403007b7          	lui	a5,0x40300
    c00017be:	05878793          	addi	a5,a5,88 # 40300058 <__lma_size+0x402f0058>
    c00017c2:	fec42703          	lw	a4,-20(s0)
    c00017c6:	8b3d                	andi	a4,a4,15
    c00017c8:	0ff77713          	andi	a4,a4,255
    c00017cc:	00f77613          	andi	a2,a4,15
    c00017d0:	4398                	lw	a4,0(a5)
    c00017d2:	9b41                	andi	a4,a4,-16
    c00017d4:	86ba                	mv	a3,a4
    c00017d6:	8732                	mv	a4,a2
    c00017d8:	8f55                	or	a4,a4,a3
    c00017da:	c398                	sw	a4,0(a5)
}
    c00017dc:	0001                	nop
    c00017de:	6462                	ld	s0,24(sp)
    c00017e0:	6105                	addi	sp,sp,32
    c00017e2:	8082                	ret

00000000c00017e4 <ddr_cal_test>:

char ddr_cal_test()
{
    c00017e4:	1101                	addi	sp,sp,-32
    c00017e6:	ec22                	sd	s0,24(sp)
    c00017e8:	1000                	addi	s0,sp,32
	char result = 0;
    c00017ea:	fe0407a3          	sb	zero,-17(s0)
	DDR0_MR_ADR = 32;
    c00017ee:	403007b7          	lui	a5,0x40300
    c00017f2:	02000713          	li	a4,32
    c00017f6:	00e781a3          	sb	a4,3(a5) # 40300003 <__lma_size+0x402f0003>
	DDR0_MR_WE  = 0;
    c00017fa:	403007b7          	lui	a5,0x40300
    c00017fe:	4398                	lw	a4,0(a5)
    c0001800:	9b75                	andi	a4,a4,-3
    c0001802:	c398                	sw	a4,0(a5)
	DDR0_MR_REQ = 1;
    c0001804:	403007b7          	lui	a5,0x40300
    c0001808:	4398                	lw	a4,0(a5)
    c000180a:	00176713          	ori	a4,a4,1
    c000180e:	c398                	sw	a4,0(a5)
	while(DDR0_MR_REQ);
    c0001810:	0001                	nop
    c0001812:	403007b7          	lui	a5,0x40300
    c0001816:	439c                	lw	a5,0(a5)
    c0001818:	8b85                	andi	a5,a5,1
    c000181a:	0ff7f793          	andi	a5,a5,255
    c000181e:	fbf5                	bnez	a5,c0001812 <ddr_cal_test+0x2e>
	if(DDR0_MR_RDDAT0!=0x00000000) result++;
    c0001820:	403007b7          	lui	a5,0x40300
    c0001824:	03078793          	addi	a5,a5,48 # 40300030 <__lma_size+0x402f0030>
    c0001828:	439c                	lw	a5,0(a5)
    c000182a:	2781                	sext.w	a5,a5
    c000182c:	c791                	beqz	a5,c0001838 <ddr_cal_test+0x54>
    c000182e:	fef44783          	lbu	a5,-17(s0)
    c0001832:	2785                	addiw	a5,a5,1
    c0001834:	fef407a3          	sb	a5,-17(s0)
	if(DDR0_MR_RDDAT1!=0x00000000) result++;
    c0001838:	403007b7          	lui	a5,0x40300
    c000183c:	03878793          	addi	a5,a5,56 # 40300038 <__lma_size+0x402f0038>
    c0001840:	439c                	lw	a5,0(a5)
    c0001842:	2781                	sext.w	a5,a5
    c0001844:	c791                	beqz	a5,c0001850 <ddr_cal_test+0x6c>
    c0001846:	fef44783          	lbu	a5,-17(s0)
    c000184a:	2785                	addiw	a5,a5,1
    c000184c:	fef407a3          	sb	a5,-17(s0)
	if(DDR0_MR_RDDAT2!=0xffffffff) result++;
    c0001850:	403007b7          	lui	a5,0x40300
    c0001854:	04078793          	addi	a5,a5,64 # 40300040 <__lma_size+0x402f0040>
    c0001858:	439c                	lw	a5,0(a5)
    c000185a:	2781                	sext.w	a5,a5
    c000185c:	873e                	mv	a4,a5
    c000185e:	57fd                	li	a5,-1
    c0001860:	00f70763          	beq	a4,a5,c000186e <ddr_cal_test+0x8a>
    c0001864:	fef44783          	lbu	a5,-17(s0)
    c0001868:	2785                	addiw	a5,a5,1
    c000186a:	fef407a3          	sb	a5,-17(s0)
	if(DDR0_MR_RDDAT3!=0xffffffff) result++;
    c000186e:	403007b7          	lui	a5,0x40300
    c0001872:	04878793          	addi	a5,a5,72 # 40300048 <__lma_size+0x402f0048>
    c0001876:	439c                	lw	a5,0(a5)
    c0001878:	2781                	sext.w	a5,a5
    c000187a:	873e                	mv	a4,a5
    c000187c:	57fd                	li	a5,-1
    c000187e:	00f70763          	beq	a4,a5,c000188c <ddr_cal_test+0xa8>
    c0001882:	fef44783          	lbu	a5,-17(s0)
    c0001886:	2785                	addiw	a5,a5,1
    c0001888:	fef407a3          	sb	a5,-17(s0)
	//if(result>0) printf("%08x %08x %08x %08x ", DDR0_MR_RDDAT0,DDR0_MR_RDDAT1,DDR0_MR_RDDAT2,DDR0_MR_RDDAT3);
	DDR0_MR_ADR = 40;
    c000188c:	403007b7          	lui	a5,0x40300
    c0001890:	02800713          	li	a4,40
    c0001894:	00e781a3          	sb	a4,3(a5) # 40300003 <__lma_size+0x402f0003>
	DDR0_MR_WE  = 0;
    c0001898:	403007b7          	lui	a5,0x40300
    c000189c:	4398                	lw	a4,0(a5)
    c000189e:	9b75                	andi	a4,a4,-3
    c00018a0:	c398                	sw	a4,0(a5)
	DDR0_MR_REQ = 1;
    c00018a2:	403007b7          	lui	a5,0x40300
    c00018a6:	4398                	lw	a4,0(a5)
    c00018a8:	00176713          	ori	a4,a4,1
    c00018ac:	c398                	sw	a4,0(a5)
	while(DDR0_MR_REQ);
    c00018ae:	0001                	nop
    c00018b0:	403007b7          	lui	a5,0x40300
    c00018b4:	439c                	lw	a5,0(a5)
    c00018b6:	8b85                	andi	a5,a5,1
    c00018b8:	0ff7f793          	andi	a5,a5,255
    c00018bc:	fbf5                	bnez	a5,c00018b0 <ddr_cal_test+0xcc>
	if(DDR0_MR_RDDAT0!=0xffffffff) result++;
    c00018be:	403007b7          	lui	a5,0x40300
    c00018c2:	03078793          	addi	a5,a5,48 # 40300030 <__lma_size+0x402f0030>
    c00018c6:	439c                	lw	a5,0(a5)
    c00018c8:	2781                	sext.w	a5,a5
    c00018ca:	873e                	mv	a4,a5
    c00018cc:	57fd                	li	a5,-1
    c00018ce:	00f70763          	beq	a4,a5,c00018dc <ddr_cal_test+0xf8>
    c00018d2:	fef44783          	lbu	a5,-17(s0)
    c00018d6:	2785                	addiw	a5,a5,1
    c00018d8:	fef407a3          	sb	a5,-17(s0)
	if(DDR0_MR_RDDAT1!=0x00000000) result++;
    c00018dc:	403007b7          	lui	a5,0x40300
    c00018e0:	03878793          	addi	a5,a5,56 # 40300038 <__lma_size+0x402f0038>
    c00018e4:	439c                	lw	a5,0(a5)
    c00018e6:	2781                	sext.w	a5,a5
    c00018e8:	c791                	beqz	a5,c00018f4 <ddr_cal_test+0x110>
    c00018ea:	fef44783          	lbu	a5,-17(s0)
    c00018ee:	2785                	addiw	a5,a5,1
    c00018f0:	fef407a3          	sb	a5,-17(s0)
	if(DDR0_MR_RDDAT2!=0xffffffff) result++;
    c00018f4:	403007b7          	lui	a5,0x40300
    c00018f8:	04078793          	addi	a5,a5,64 # 40300040 <__lma_size+0x402f0040>
    c00018fc:	439c                	lw	a5,0(a5)
    c00018fe:	2781                	sext.w	a5,a5
    c0001900:	873e                	mv	a4,a5
    c0001902:	57fd                	li	a5,-1
    c0001904:	00f70763          	beq	a4,a5,c0001912 <ddr_cal_test+0x12e>
    c0001908:	fef44783          	lbu	a5,-17(s0)
    c000190c:	2785                	addiw	a5,a5,1
    c000190e:	fef407a3          	sb	a5,-17(s0)
	if(DDR0_MR_RDDAT3!=0x00000000) result++;
    c0001912:	403007b7          	lui	a5,0x40300
    c0001916:	04878793          	addi	a5,a5,72 # 40300048 <__lma_size+0x402f0048>
    c000191a:	439c                	lw	a5,0(a5)
    c000191c:	2781                	sext.w	a5,a5
    c000191e:	c791                	beqz	a5,c000192a <ddr_cal_test+0x146>
    c0001920:	fef44783          	lbu	a5,-17(s0)
    c0001924:	2785                	addiw	a5,a5,1
    c0001926:	fef407a3          	sb	a5,-17(s0)
	//if(result>0) printf("%08x %08x %08x %08x\n", DDR0_MR_RDDAT0,DDR0_MR_RDDAT1,DDR0_MR_RDDAT2,DDR0_MR_RDDAT3);
	DDR0_MR_ADR = 32;
    c000192a:	403007b7          	lui	a5,0x40300
    c000192e:	02000713          	li	a4,32
    c0001932:	00e781a3          	sb	a4,3(a5) # 40300003 <__lma_size+0x402f0003>
	DDR0_MR_WE  = 0;
    c0001936:	403007b7          	lui	a5,0x40300
    c000193a:	4398                	lw	a4,0(a5)
    c000193c:	9b75                	andi	a4,a4,-3
    c000193e:	c398                	sw	a4,0(a5)
	DDR0_MR_REQ = 1;
    c0001940:	403007b7          	lui	a5,0x40300
    c0001944:	4398                	lw	a4,0(a5)
    c0001946:	00176713          	ori	a4,a4,1
    c000194a:	c398                	sw	a4,0(a5)
	while(DDR0_MR_REQ);
    c000194c:	0001                	nop
    c000194e:	403007b7          	lui	a5,0x40300
    c0001952:	439c                	lw	a5,0(a5)
    c0001954:	8b85                	andi	a5,a5,1
    c0001956:	0ff7f793          	andi	a5,a5,255
    c000195a:	fbf5                	bnez	a5,c000194e <ddr_cal_test+0x16a>
	if(DDR0_MR_RDDAT0!=0x00000000) result++;
    c000195c:	403007b7          	lui	a5,0x40300
    c0001960:	03078793          	addi	a5,a5,48 # 40300030 <__lma_size+0x402f0030>
    c0001964:	439c                	lw	a5,0(a5)
    c0001966:	2781                	sext.w	a5,a5
    c0001968:	c791                	beqz	a5,c0001974 <ddr_cal_test+0x190>
    c000196a:	fef44783          	lbu	a5,-17(s0)
    c000196e:	2785                	addiw	a5,a5,1
    c0001970:	fef407a3          	sb	a5,-17(s0)
	if(DDR0_MR_RDDAT1!=0x00000000) result++;
    c0001974:	403007b7          	lui	a5,0x40300
    c0001978:	03878793          	addi	a5,a5,56 # 40300038 <__lma_size+0x402f0038>
    c000197c:	439c                	lw	a5,0(a5)
    c000197e:	2781                	sext.w	a5,a5
    c0001980:	c791                	beqz	a5,c000198c <ddr_cal_test+0x1a8>
    c0001982:	fef44783          	lbu	a5,-17(s0)
    c0001986:	2785                	addiw	a5,a5,1
    c0001988:	fef407a3          	sb	a5,-17(s0)
	if(DDR0_MR_RDDAT2!=0xffffffff) result++;
    c000198c:	403007b7          	lui	a5,0x40300
    c0001990:	04078793          	addi	a5,a5,64 # 40300040 <__lma_size+0x402f0040>
    c0001994:	439c                	lw	a5,0(a5)
    c0001996:	2781                	sext.w	a5,a5
    c0001998:	873e                	mv	a4,a5
    c000199a:	57fd                	li	a5,-1
    c000199c:	00f70763          	beq	a4,a5,c00019aa <ddr_cal_test+0x1c6>
    c00019a0:	fef44783          	lbu	a5,-17(s0)
    c00019a4:	2785                	addiw	a5,a5,1
    c00019a6:	fef407a3          	sb	a5,-17(s0)
	if(DDR0_MR_RDDAT3!=0xffffffff) result++;
    c00019aa:	403007b7          	lui	a5,0x40300
    c00019ae:	04878793          	addi	a5,a5,72 # 40300048 <__lma_size+0x402f0048>
    c00019b2:	439c                	lw	a5,0(a5)
    c00019b4:	2781                	sext.w	a5,a5
    c00019b6:	873e                	mv	a4,a5
    c00019b8:	57fd                	li	a5,-1
    c00019ba:	00f70763          	beq	a4,a5,c00019c8 <ddr_cal_test+0x1e4>
    c00019be:	fef44783          	lbu	a5,-17(s0)
    c00019c2:	2785                	addiw	a5,a5,1
    c00019c4:	fef407a3          	sb	a5,-17(s0)
	//if(result>0) printf("%08x %08x %08x %08x ", DDR0_MR_RDDAT0,DDR0_MR_RDDAT1,DDR0_MR_RDDAT2,DDR0_MR_RDDAT3);
	DDR0_MR_ADR = 40;
    c00019c8:	403007b7          	lui	a5,0x40300
    c00019cc:	02800713          	li	a4,40
    c00019d0:	00e781a3          	sb	a4,3(a5) # 40300003 <__lma_size+0x402f0003>
	DDR0_MR_WE  = 0;
    c00019d4:	403007b7          	lui	a5,0x40300
    c00019d8:	4398                	lw	a4,0(a5)
    c00019da:	9b75                	andi	a4,a4,-3
    c00019dc:	c398                	sw	a4,0(a5)
	DDR0_MR_REQ = 1;
    c00019de:	403007b7          	lui	a5,0x40300
    c00019e2:	4398                	lw	a4,0(a5)
    c00019e4:	00176713          	ori	a4,a4,1
    c00019e8:	c398                	sw	a4,0(a5)
	while(DDR0_MR_REQ);
    c00019ea:	0001                	nop
    c00019ec:	403007b7          	lui	a5,0x40300
    c00019f0:	439c                	lw	a5,0(a5)
    c00019f2:	8b85                	andi	a5,a5,1
    c00019f4:	0ff7f793          	andi	a5,a5,255
    c00019f8:	fbf5                	bnez	a5,c00019ec <ddr_cal_test+0x208>
	if(DDR0_MR_RDDAT0!=0xffffffff) result++;
    c00019fa:	403007b7          	lui	a5,0x40300
    c00019fe:	03078793          	addi	a5,a5,48 # 40300030 <__lma_size+0x402f0030>
    c0001a02:	439c                	lw	a5,0(a5)
    c0001a04:	2781                	sext.w	a5,a5
    c0001a06:	873e                	mv	a4,a5
    c0001a08:	57fd                	li	a5,-1
    c0001a0a:	00f70763          	beq	a4,a5,c0001a18 <ddr_cal_test+0x234>
    c0001a0e:	fef44783          	lbu	a5,-17(s0)
    c0001a12:	2785                	addiw	a5,a5,1
    c0001a14:	fef407a3          	sb	a5,-17(s0)
	if(DDR0_MR_RDDAT1!=0x00000000) result++;
    c0001a18:	403007b7          	lui	a5,0x40300
    c0001a1c:	03878793          	addi	a5,a5,56 # 40300038 <__lma_size+0x402f0038>
    c0001a20:	439c                	lw	a5,0(a5)
    c0001a22:	2781                	sext.w	a5,a5
    c0001a24:	c791                	beqz	a5,c0001a30 <ddr_cal_test+0x24c>
    c0001a26:	fef44783          	lbu	a5,-17(s0)
    c0001a2a:	2785                	addiw	a5,a5,1
    c0001a2c:	fef407a3          	sb	a5,-17(s0)
	if(DDR0_MR_RDDAT2!=0xffffffff) result++;
    c0001a30:	403007b7          	lui	a5,0x40300
    c0001a34:	04078793          	addi	a5,a5,64 # 40300040 <__lma_size+0x402f0040>
    c0001a38:	439c                	lw	a5,0(a5)
    c0001a3a:	2781                	sext.w	a5,a5
    c0001a3c:	873e                	mv	a4,a5
    c0001a3e:	57fd                	li	a5,-1
    c0001a40:	00f70763          	beq	a4,a5,c0001a4e <ddr_cal_test+0x26a>
    c0001a44:	fef44783          	lbu	a5,-17(s0)
    c0001a48:	2785                	addiw	a5,a5,1
    c0001a4a:	fef407a3          	sb	a5,-17(s0)
	if(DDR0_MR_RDDAT3!=0x00000000) result++;
    c0001a4e:	403007b7          	lui	a5,0x40300
    c0001a52:	04878793          	addi	a5,a5,72 # 40300048 <__lma_size+0x402f0048>
    c0001a56:	439c                	lw	a5,0(a5)
    c0001a58:	2781                	sext.w	a5,a5
    c0001a5a:	c791                	beqz	a5,c0001a66 <ddr_cal_test+0x282>
    c0001a5c:	fef44783          	lbu	a5,-17(s0)
    c0001a60:	2785                	addiw	a5,a5,1
    c0001a62:	fef407a3          	sb	a5,-17(s0)
	//if(result>0) printf("%08x %08x %08x %08x\n", DDR0_MR_RDDAT0,DDR0_MR_RDDAT1,DDR0_MR_RDDAT2,DDR0_MR_RDDAT3);
	return result;
    c0001a66:	fef44783          	lbu	a5,-17(s0)
}
    c0001a6a:	853e                	mv	a0,a5
    c0001a6c:	6462                	ld	s0,24(sp)
    c0001a6e:	6105                	addi	sp,sp,32
    c0001a70:	8082                	ret

00000000c0001a72 <ddr_rw_test>:
char ddr_rw_test()
{
    c0001a72:	1101                	addi	sp,sp,-32
    c0001a74:	ec06                	sd	ra,24(sp)
    c0001a76:	e822                	sd	s0,16(sp)
    c0001a78:	1000                	addi	s0,sp,32
	char result = 0;
    c0001a7a:	fe0407a3          	sb	zero,-17(s0)
	UINT *ADDR0_BASE = 0x80000000;
    c0001a7e:	4785                	li	a5,1
    c0001a80:	07fe                	slli	a5,a5,0x1f
    c0001a82:	fef43023          	sd	a5,-32(s0)
	hwflush_dcache_range(0x80000000, 0x40);
    c0001a86:	04000593          	li	a1,64
    c0001a8a:	80000537          	lui	a0,0x80000
    c0001a8e:	678010ef          	jal	ra,c0003106 <hwflush_dcache_range>
	ADDR0_BASE[0] = 0xffffffff;
    c0001a92:	fe043783          	ld	a5,-32(s0)
    c0001a96:	577d                	li	a4,-1
    c0001a98:	c398                	sw	a4,0(a5)
	ADDR0_BASE[1] = 0;
    c0001a9a:	fe043783          	ld	a5,-32(s0)
    c0001a9e:	0791                	addi	a5,a5,4
    c0001aa0:	0007a023          	sw	zero,0(a5)
	ADDR0_BASE[2] = 0xffffffff;
    c0001aa4:	fe043783          	ld	a5,-32(s0)
    c0001aa8:	07a1                	addi	a5,a5,8
    c0001aaa:	577d                	li	a4,-1
    c0001aac:	c398                	sw	a4,0(a5)
	ADDR0_BASE[3] = 0;
    c0001aae:	fe043783          	ld	a5,-32(s0)
    c0001ab2:	07b1                	addi	a5,a5,12
    c0001ab4:	0007a023          	sw	zero,0(a5)
	ADDR0_BASE[4] = 0xffffffff;
    c0001ab8:	fe043783          	ld	a5,-32(s0)
    c0001abc:	07c1                	addi	a5,a5,16
    c0001abe:	577d                	li	a4,-1
    c0001ac0:	c398                	sw	a4,0(a5)
	ADDR0_BASE[5] = 0xffffffff;
    c0001ac2:	fe043783          	ld	a5,-32(s0)
    c0001ac6:	07d1                	addi	a5,a5,20
    c0001ac8:	577d                	li	a4,-1
    c0001aca:	c398                	sw	a4,0(a5)
	ADDR0_BASE[6] = 0;
    c0001acc:	fe043783          	ld	a5,-32(s0)
    c0001ad0:	07e1                	addi	a5,a5,24
    c0001ad2:	0007a023          	sw	zero,0(a5)
	ADDR0_BASE[7] = 0;
    c0001ad6:	fe043783          	ld	a5,-32(s0)
    c0001ada:	07f1                	addi	a5,a5,28
    c0001adc:	0007a023          	sw	zero,0(a5)
	ADDR0_BASE[8] = 0xaaaaaaaa;
    c0001ae0:	fe043783          	ld	a5,-32(s0)
    c0001ae4:	02078793          	addi	a5,a5,32
    c0001ae8:	aaaab737          	lui	a4,0xaaaab
    c0001aec:	aaa7071b          	addiw	a4,a4,-1366
    c0001af0:	c398                	sw	a4,0(a5)
	ADDR0_BASE[9] = 0x55555555;
    c0001af2:	fe043783          	ld	a5,-32(s0)
    c0001af6:	02478793          	addi	a5,a5,36
    c0001afa:	55555737          	lui	a4,0x55555
    c0001afe:	5557071b          	addiw	a4,a4,1365
    c0001b02:	c398                	sw	a4,0(a5)
	ADDR0_BASE[10] = 0xaaaaaaaa;
    c0001b04:	fe043783          	ld	a5,-32(s0)
    c0001b08:	02878793          	addi	a5,a5,40
    c0001b0c:	aaaab737          	lui	a4,0xaaaab
    c0001b10:	aaa7071b          	addiw	a4,a4,-1366
    c0001b14:	c398                	sw	a4,0(a5)
	ADDR0_BASE[11] = 0x55555555;
    c0001b16:	fe043783          	ld	a5,-32(s0)
    c0001b1a:	02c78793          	addi	a5,a5,44
    c0001b1e:	55555737          	lui	a4,0x55555
    c0001b22:	5557071b          	addiw	a4,a4,1365
    c0001b26:	c398                	sw	a4,0(a5)
	ADDR0_BASE[12] = 0x55555555;
    c0001b28:	fe043783          	ld	a5,-32(s0)
    c0001b2c:	03078793          	addi	a5,a5,48
    c0001b30:	55555737          	lui	a4,0x55555
    c0001b34:	5557071b          	addiw	a4,a4,1365
    c0001b38:	c398                	sw	a4,0(a5)
	ADDR0_BASE[13] = 0xaaaaaaaa;
    c0001b3a:	fe043783          	ld	a5,-32(s0)
    c0001b3e:	03478793          	addi	a5,a5,52
    c0001b42:	aaaab737          	lui	a4,0xaaaab
    c0001b46:	aaa7071b          	addiw	a4,a4,-1366
    c0001b4a:	c398                	sw	a4,0(a5)
	ADDR0_BASE[14] = 0x55555555;
    c0001b4c:	fe043783          	ld	a5,-32(s0)
    c0001b50:	03878793          	addi	a5,a5,56
    c0001b54:	55555737          	lui	a4,0x55555
    c0001b58:	5557071b          	addiw	a4,a4,1365
    c0001b5c:	c398                	sw	a4,0(a5)
	ADDR0_BASE[15] = 0xaaaaaaaa;
    c0001b5e:	fe043783          	ld	a5,-32(s0)
    c0001b62:	03c78793          	addi	a5,a5,60
    c0001b66:	aaaab737          	lui	a4,0xaaaab
    c0001b6a:	aaa7071b          	addiw	a4,a4,-1366
    c0001b6e:	c398                	sw	a4,0(a5)
	hwflush_dcache_range(0x80000000, 0x40);
    c0001b70:	04000593          	li	a1,64
    c0001b74:	80000537          	lui	a0,0x80000
    c0001b78:	58e010ef          	jal	ra,c0003106 <hwflush_dcache_range>
	if(ADDR0_BASE[0]!=0xffffffff) result++;
    c0001b7c:	fe043783          	ld	a5,-32(s0)
    c0001b80:	439c                	lw	a5,0(a5)
    c0001b82:	873e                	mv	a4,a5
    c0001b84:	57fd                	li	a5,-1
    c0001b86:	00f70763          	beq	a4,a5,c0001b94 <ddr_rw_test+0x122>
    c0001b8a:	fef44783          	lbu	a5,-17(s0)
    c0001b8e:	2785                	addiw	a5,a5,1
    c0001b90:	fef407a3          	sb	a5,-17(s0)
	if(ADDR0_BASE[1]!=0x00000000) result++;
    c0001b94:	fe043783          	ld	a5,-32(s0)
    c0001b98:	0791                	addi	a5,a5,4
    c0001b9a:	439c                	lw	a5,0(a5)
    c0001b9c:	c791                	beqz	a5,c0001ba8 <ddr_rw_test+0x136>
    c0001b9e:	fef44783          	lbu	a5,-17(s0)
    c0001ba2:	2785                	addiw	a5,a5,1
    c0001ba4:	fef407a3          	sb	a5,-17(s0)
	if(ADDR0_BASE[2]!=0xffffffff) result++;
    c0001ba8:	fe043783          	ld	a5,-32(s0)
    c0001bac:	07a1                	addi	a5,a5,8
    c0001bae:	439c                	lw	a5,0(a5)
    c0001bb0:	873e                	mv	a4,a5
    c0001bb2:	57fd                	li	a5,-1
    c0001bb4:	00f70763          	beq	a4,a5,c0001bc2 <ddr_rw_test+0x150>
    c0001bb8:	fef44783          	lbu	a5,-17(s0)
    c0001bbc:	2785                	addiw	a5,a5,1
    c0001bbe:	fef407a3          	sb	a5,-17(s0)
	if(ADDR0_BASE[3]!=0x00000000) result++;
    c0001bc2:	fe043783          	ld	a5,-32(s0)
    c0001bc6:	07b1                	addi	a5,a5,12
    c0001bc8:	439c                	lw	a5,0(a5)
    c0001bca:	c791                	beqz	a5,c0001bd6 <ddr_rw_test+0x164>
    c0001bcc:	fef44783          	lbu	a5,-17(s0)
    c0001bd0:	2785                	addiw	a5,a5,1
    c0001bd2:	fef407a3          	sb	a5,-17(s0)
	if(ADDR0_BASE[4]!=0xffffffff) result++;
    c0001bd6:	fe043783          	ld	a5,-32(s0)
    c0001bda:	07c1                	addi	a5,a5,16
    c0001bdc:	439c                	lw	a5,0(a5)
    c0001bde:	873e                	mv	a4,a5
    c0001be0:	57fd                	li	a5,-1
    c0001be2:	00f70763          	beq	a4,a5,c0001bf0 <ddr_rw_test+0x17e>
    c0001be6:	fef44783          	lbu	a5,-17(s0)
    c0001bea:	2785                	addiw	a5,a5,1
    c0001bec:	fef407a3          	sb	a5,-17(s0)
	if(ADDR0_BASE[5]!=0xffffffff) result++;
    c0001bf0:	fe043783          	ld	a5,-32(s0)
    c0001bf4:	07d1                	addi	a5,a5,20
    c0001bf6:	439c                	lw	a5,0(a5)
    c0001bf8:	873e                	mv	a4,a5
    c0001bfa:	57fd                	li	a5,-1
    c0001bfc:	00f70763          	beq	a4,a5,c0001c0a <ddr_rw_test+0x198>
    c0001c00:	fef44783          	lbu	a5,-17(s0)
    c0001c04:	2785                	addiw	a5,a5,1
    c0001c06:	fef407a3          	sb	a5,-17(s0)
	if(ADDR0_BASE[6]!=0x00000000) result++;
    c0001c0a:	fe043783          	ld	a5,-32(s0)
    c0001c0e:	07e1                	addi	a5,a5,24
    c0001c10:	439c                	lw	a5,0(a5)
    c0001c12:	c791                	beqz	a5,c0001c1e <ddr_rw_test+0x1ac>
    c0001c14:	fef44783          	lbu	a5,-17(s0)
    c0001c18:	2785                	addiw	a5,a5,1
    c0001c1a:	fef407a3          	sb	a5,-17(s0)
	if(ADDR0_BASE[7]!=0x00000000) result++;
    c0001c1e:	fe043783          	ld	a5,-32(s0)
    c0001c22:	07f1                	addi	a5,a5,28
    c0001c24:	439c                	lw	a5,0(a5)
    c0001c26:	c791                	beqz	a5,c0001c32 <ddr_rw_test+0x1c0>
    c0001c28:	fef44783          	lbu	a5,-17(s0)
    c0001c2c:	2785                	addiw	a5,a5,1
    c0001c2e:	fef407a3          	sb	a5,-17(s0)
	if(ADDR0_BASE[8]!=0xaaaaaaaa) result++;
    c0001c32:	fe043783          	ld	a5,-32(s0)
    c0001c36:	02078793          	addi	a5,a5,32
    c0001c3a:	439c                	lw	a5,0(a5)
    c0001c3c:	873e                	mv	a4,a5
    c0001c3e:	aaaab7b7          	lui	a5,0xaaaab
    c0001c42:	aaa78793          	addi	a5,a5,-1366 # ffffffffaaaaaaaa <_bss_start+0xfffffffeeaa9aaaa>
    c0001c46:	00f70763          	beq	a4,a5,c0001c54 <ddr_rw_test+0x1e2>
    c0001c4a:	fef44783          	lbu	a5,-17(s0)
    c0001c4e:	2785                	addiw	a5,a5,1
    c0001c50:	fef407a3          	sb	a5,-17(s0)
	if(ADDR0_BASE[9]!=0x55555555) result++;
    c0001c54:	fe043783          	ld	a5,-32(s0)
    c0001c58:	02478793          	addi	a5,a5,36
    c0001c5c:	439c                	lw	a5,0(a5)
    c0001c5e:	873e                	mv	a4,a5
    c0001c60:	555557b7          	lui	a5,0x55555
    c0001c64:	55578793          	addi	a5,a5,1365 # 55555555 <__lma_size+0x55545555>
    c0001c68:	00f70763          	beq	a4,a5,c0001c76 <ddr_rw_test+0x204>
    c0001c6c:	fef44783          	lbu	a5,-17(s0)
    c0001c70:	2785                	addiw	a5,a5,1
    c0001c72:	fef407a3          	sb	a5,-17(s0)
	if(ADDR0_BASE[10]!=0xaaaaaaaa) result++;
    c0001c76:	fe043783          	ld	a5,-32(s0)
    c0001c7a:	02878793          	addi	a5,a5,40
    c0001c7e:	439c                	lw	a5,0(a5)
    c0001c80:	873e                	mv	a4,a5
    c0001c82:	aaaab7b7          	lui	a5,0xaaaab
    c0001c86:	aaa78793          	addi	a5,a5,-1366 # ffffffffaaaaaaaa <_bss_start+0xfffffffeeaa9aaaa>
    c0001c8a:	00f70763          	beq	a4,a5,c0001c98 <ddr_rw_test+0x226>
    c0001c8e:	fef44783          	lbu	a5,-17(s0)
    c0001c92:	2785                	addiw	a5,a5,1
    c0001c94:	fef407a3          	sb	a5,-17(s0)
	if(ADDR0_BASE[11]!=0x55555555) result++;
    c0001c98:	fe043783          	ld	a5,-32(s0)
    c0001c9c:	02c78793          	addi	a5,a5,44
    c0001ca0:	439c                	lw	a5,0(a5)
    c0001ca2:	873e                	mv	a4,a5
    c0001ca4:	555557b7          	lui	a5,0x55555
    c0001ca8:	55578793          	addi	a5,a5,1365 # 55555555 <__lma_size+0x55545555>
    c0001cac:	00f70763          	beq	a4,a5,c0001cba <ddr_rw_test+0x248>
    c0001cb0:	fef44783          	lbu	a5,-17(s0)
    c0001cb4:	2785                	addiw	a5,a5,1
    c0001cb6:	fef407a3          	sb	a5,-17(s0)
	if(ADDR0_BASE[12]!=0x55555555) result++;
    c0001cba:	fe043783          	ld	a5,-32(s0)
    c0001cbe:	03078793          	addi	a5,a5,48
    c0001cc2:	439c                	lw	a5,0(a5)
    c0001cc4:	873e                	mv	a4,a5
    c0001cc6:	555557b7          	lui	a5,0x55555
    c0001cca:	55578793          	addi	a5,a5,1365 # 55555555 <__lma_size+0x55545555>
    c0001cce:	00f70763          	beq	a4,a5,c0001cdc <ddr_rw_test+0x26a>
    c0001cd2:	fef44783          	lbu	a5,-17(s0)
    c0001cd6:	2785                	addiw	a5,a5,1
    c0001cd8:	fef407a3          	sb	a5,-17(s0)
	if(ADDR0_BASE[13]!=0xaaaaaaaa) result++;
    c0001cdc:	fe043783          	ld	a5,-32(s0)
    c0001ce0:	03478793          	addi	a5,a5,52
    c0001ce4:	439c                	lw	a5,0(a5)
    c0001ce6:	873e                	mv	a4,a5
    c0001ce8:	aaaab7b7          	lui	a5,0xaaaab
    c0001cec:	aaa78793          	addi	a5,a5,-1366 # ffffffffaaaaaaaa <_bss_start+0xfffffffeeaa9aaaa>
    c0001cf0:	00f70763          	beq	a4,a5,c0001cfe <ddr_rw_test+0x28c>
    c0001cf4:	fef44783          	lbu	a5,-17(s0)
    c0001cf8:	2785                	addiw	a5,a5,1
    c0001cfa:	fef407a3          	sb	a5,-17(s0)
	if(ADDR0_BASE[14]!=0x55555555) result++;
    c0001cfe:	fe043783          	ld	a5,-32(s0)
    c0001d02:	03878793          	addi	a5,a5,56
    c0001d06:	439c                	lw	a5,0(a5)
    c0001d08:	873e                	mv	a4,a5
    c0001d0a:	555557b7          	lui	a5,0x55555
    c0001d0e:	55578793          	addi	a5,a5,1365 # 55555555 <__lma_size+0x55545555>
    c0001d12:	00f70763          	beq	a4,a5,c0001d20 <ddr_rw_test+0x2ae>
    c0001d16:	fef44783          	lbu	a5,-17(s0)
    c0001d1a:	2785                	addiw	a5,a5,1
    c0001d1c:	fef407a3          	sb	a5,-17(s0)
	if(ADDR0_BASE[15]!=0xaaaaaaaa) result++;
    c0001d20:	fe043783          	ld	a5,-32(s0)
    c0001d24:	03c78793          	addi	a5,a5,60
    c0001d28:	439c                	lw	a5,0(a5)
    c0001d2a:	873e                	mv	a4,a5
    c0001d2c:	aaaab7b7          	lui	a5,0xaaaab
    c0001d30:	aaa78793          	addi	a5,a5,-1366 # ffffffffaaaaaaaa <_bss_start+0xfffffffeeaa9aaaa>
    c0001d34:	00f70763          	beq	a4,a5,c0001d42 <ddr_rw_test+0x2d0>
    c0001d38:	fef44783          	lbu	a5,-17(s0)
    c0001d3c:	2785                	addiw	a5,a5,1
    c0001d3e:	fef407a3          	sb	a5,-17(s0)
	//printf("%08x %08x %08x %08x %08x %08x %08x %08x\n", ADDR0_BASE[0], ADDR0_BASE[1], ADDR0_BASE[2], ADDR0_BASE[3], ADDR0_BASE[4], ADDR0_BASE[5], ADDR0_BASE[6], ADDR0_BASE[7]);
	return result;
    c0001d42:	fef44783          	lbu	a5,-17(s0)
}
    c0001d46:	853e                	mv	a0,a5
    c0001d48:	60e2                	ld	ra,24(sp)
    c0001d4a:	6442                	ld	s0,16(sp)
    c0001d4c:	6105                	addi	sp,sp,32
    c0001d4e:	8082                	ret

00000000c0001d50 <DdrGetId>:

void DdrGetId()
{
    c0001d50:	1141                	addi	sp,sp,-16
    c0001d52:	e406                	sd	ra,8(sp)
    c0001d54:	e022                	sd	s0,0(sp)
    c0001d56:	0800                	addi	s0,sp,16
	DDR0_MR_ADR = 5;
    c0001d58:	403007b7          	lui	a5,0x40300
    c0001d5c:	4715                	li	a4,5
    c0001d5e:	00e781a3          	sb	a4,3(a5) # 40300003 <__lma_size+0x402f0003>
	DDR0_MR_WE  = 0;
    c0001d62:	403007b7          	lui	a5,0x40300
    c0001d66:	4398                	lw	a4,0(a5)
    c0001d68:	9b75                	andi	a4,a4,-3
    c0001d6a:	c398                	sw	a4,0(a5)
	DDR0_MR_REQ = 1;
    c0001d6c:	403007b7          	lui	a5,0x40300
    c0001d70:	4398                	lw	a4,0(a5)
    c0001d72:	00176713          	ori	a4,a4,1
    c0001d76:	c398                	sw	a4,0(a5)
	while(DDR0_MR_REQ);
    c0001d78:	0001                	nop
    c0001d7a:	403007b7          	lui	a5,0x40300
    c0001d7e:	439c                	lw	a5,0(a5)
    c0001d80:	8b85                	andi	a5,a5,1
    c0001d82:	0ff7f793          	andi	a5,a5,255
    c0001d86:	fbf5                	bnez	a5,c0001d7a <DdrGetId+0x2a>
	printf("MR5:%08x\n", DDR0_MR_RDDAT0);
    c0001d88:	403007b7          	lui	a5,0x40300
    c0001d8c:	03078793          	addi	a5,a5,48 # 40300030 <__lma_size+0x402f0030>
    c0001d90:	439c                	lw	a5,0(a5)
    c0001d92:	2781                	sext.w	a5,a5
    c0001d94:	85be                	mv	a1,a5
    c0001d96:	00002517          	auipc	a0,0x2
    c0001d9a:	4aa50513          	addi	a0,a0,1194 # c0004240 <__text_e+0x160>
    c0001d9e:	964ff0ef          	jal	ra,c0000f02 <_printf>
	DDR0_MR_ADR = 8;
    c0001da2:	403007b7          	lui	a5,0x40300
    c0001da6:	4721                	li	a4,8
    c0001da8:	00e781a3          	sb	a4,3(a5) # 40300003 <__lma_size+0x402f0003>
	DDR0_MR_WE  = 0;
    c0001dac:	403007b7          	lui	a5,0x40300
    c0001db0:	4398                	lw	a4,0(a5)
    c0001db2:	9b75                	andi	a4,a4,-3
    c0001db4:	c398                	sw	a4,0(a5)
	DDR0_MR_REQ = 1;
    c0001db6:	403007b7          	lui	a5,0x40300
    c0001dba:	4398                	lw	a4,0(a5)
    c0001dbc:	00176713          	ori	a4,a4,1
    c0001dc0:	c398                	sw	a4,0(a5)
	while(DDR0_MR_REQ);
    c0001dc2:	0001                	nop
    c0001dc4:	403007b7          	lui	a5,0x40300
    c0001dc8:	439c                	lw	a5,0(a5)
    c0001dca:	8b85                	andi	a5,a5,1
    c0001dcc:	0ff7f793          	andi	a5,a5,255
    c0001dd0:	fbf5                	bnez	a5,c0001dc4 <DdrGetId+0x74>
	printf("MR8:%08x\n", DDR0_MR_RDDAT0);
    c0001dd2:	403007b7          	lui	a5,0x40300
    c0001dd6:	03078793          	addi	a5,a5,48 # 40300030 <__lma_size+0x402f0030>
    c0001dda:	439c                	lw	a5,0(a5)
    c0001ddc:	2781                	sext.w	a5,a5
    c0001dde:	85be                	mv	a1,a5
    c0001de0:	00002517          	auipc	a0,0x2
    c0001de4:	47050513          	addi	a0,a0,1136 # c0004250 <__text_e+0x170>
    c0001de8:	91aff0ef          	jal	ra,c0000f02 <_printf>
}
    c0001dec:	0001                	nop
    c0001dee:	60a2                	ld	ra,8(sp)
    c0001df0:	6402                	ld	s0,0(sp)
    c0001df2:	0141                	addi	sp,sp,16
    c0001df4:	8082                	ret

00000000c0001df6 <DdrOn>:

void DdrOn()
{
    c0001df6:	1141                	addi	sp,sp,-16
    c0001df8:	e422                	sd	s0,8(sp)
    c0001dfa:	0800                	addi	s0,sp,16
	if(!DDR0_PWR_CUR)
    c0001dfc:	403007b7          	lui	a5,0x40300
    c0001e00:	07a1                	addi	a5,a5,8
    c0001e02:	439c                	lw	a5,0(a5)
    c0001e04:	0017d79b          	srliw	a5,a5,0x1
    c0001e08:	8b85                	andi	a5,a5,1
    c0001e0a:	0ff7f793          	andi	a5,a5,255
    c0001e0e:	e38d                	bnez	a5,c0001e30 <DdrOn+0x3a>
	{
		DDR0_PWR_REQ = 1;
    c0001e10:	403007b7          	lui	a5,0x40300
    c0001e14:	07a1                	addi	a5,a5,8
    c0001e16:	4398                	lw	a4,0(a5)
    c0001e18:	00176713          	ori	a4,a4,1
    c0001e1c:	c398                	sw	a4,0(a5)
		while(DDR0_PWR_REQ);
    c0001e1e:	0001                	nop
    c0001e20:	403007b7          	lui	a5,0x40300
    c0001e24:	07a1                	addi	a5,a5,8
    c0001e26:	439c                	lw	a5,0(a5)
    c0001e28:	8b85                	andi	a5,a5,1
    c0001e2a:	0ff7f793          	andi	a5,a5,255
    c0001e2e:	fbed                	bnez	a5,c0001e20 <DdrOn+0x2a>
	}
}
    c0001e30:	0001                	nop
    c0001e32:	6422                	ld	s0,8(sp)
    c0001e34:	0141                	addi	sp,sp,16
    c0001e36:	8082                	ret

00000000c0001e38 <DdrOff>:
void DdrOff()
{
    c0001e38:	1141                	addi	sp,sp,-16
    c0001e3a:	e422                	sd	s0,8(sp)
    c0001e3c:	0800                	addi	s0,sp,16
	if(DDR0_PWR_CUR)
    c0001e3e:	403007b7          	lui	a5,0x40300
    c0001e42:	07a1                	addi	a5,a5,8
    c0001e44:	439c                	lw	a5,0(a5)
    c0001e46:	0017d79b          	srliw	a5,a5,0x1
    c0001e4a:	8b85                	andi	a5,a5,1
    c0001e4c:	0ff7f793          	andi	a5,a5,255
    c0001e50:	c38d                	beqz	a5,c0001e72 <DdrOff+0x3a>
	{
		DDR0_PWR_REQ = 1;
    c0001e52:	403007b7          	lui	a5,0x40300
    c0001e56:	07a1                	addi	a5,a5,8
    c0001e58:	4398                	lw	a4,0(a5)
    c0001e5a:	00176713          	ori	a4,a4,1
    c0001e5e:	c398                	sw	a4,0(a5)
		while(DDR0_PWR_REQ);
    c0001e60:	0001                	nop
    c0001e62:	403007b7          	lui	a5,0x40300
    c0001e66:	07a1                	addi	a5,a5,8
    c0001e68:	439c                	lw	a5,0(a5)
    c0001e6a:	8b85                	andi	a5,a5,1
    c0001e6c:	0ff7f793          	andi	a5,a5,255
    c0001e70:	fbed                	bnez	a5,c0001e62 <DdrOff+0x2a>
	}
}
    c0001e72:	0001                	nop
    c0001e74:	6422                	ld	s0,8(sp)
    c0001e76:	0141                	addi	sp,sp,16
    c0001e78:	8082                	ret

00000000c0001e7a <DdrOffOn>:
void DdrOffOn()
{
    c0001e7a:	1141                	addi	sp,sp,-16
    c0001e7c:	e406                	sd	ra,8(sp)
    c0001e7e:	e022                	sd	s0,0(sp)
    c0001e80:	0800                	addi	s0,sp,16
	DdrOff();
    c0001e82:	fb7ff0ef          	jal	ra,c0001e38 <DdrOff>
	DdrOn();
    c0001e86:	f71ff0ef          	jal	ra,c0001df6 <DdrOn>
}
    c0001e8a:	0001                	nop
    c0001e8c:	60a2                	ld	ra,8(sp)
    c0001e8e:	6402                	ld	s0,0(sp)
    c0001e90:	0141                	addi	sp,sp,16
    c0001e92:	8082                	ret

00000000c0001e94 <DdrInit>:

void DdrInit(BYTE Sel)
{
    c0001e94:	7139                	addi	sp,sp,-64
    c0001e96:	fc06                	sd	ra,56(sp)
    c0001e98:	f822                	sd	s0,48(sp)
    c0001e9a:	0080                	addi	s0,sp,64
    c0001e9c:	87aa                	mv	a5,a0
    c0001e9e:	fcf407a3          	sb	a5,-49(s0)
	int i;
	char min=15, max=0;
    c0001ea2:	47bd                	li	a5,15
    c0001ea4:	fef405a3          	sb	a5,-21(s0)
    c0001ea8:	fe040523          	sb	zero,-22(s0)

	DdrOff();
    c0001eac:	f8dff0ef          	jal	ra,c0001e38 <DdrOff>

	DDR0_MEM_SEL = Sel;// (0:128Mb S2/S4, 1:256Mb S2/S4, 2:512Mb S2/S4, 3:1Gb S2, 4:1Gb S4, 5: 2Gb S2, 6:2Gb S4, 7:4Gb S2/S4)
    c0001eb0:	403007b7          	lui	a5,0x40300
    c0001eb4:	07a1                	addi	a5,a5,8
    c0001eb6:	fcf44703          	lbu	a4,-49(s0)
    c0001eba:	8b1d                	andi	a4,a4,7
    c0001ebc:	0ff77713          	andi	a4,a4,255
    c0001ec0:	8b1d                	andi	a4,a4,7
    c0001ec2:	0087171b          	slliw	a4,a4,0x8
    c0001ec6:	4394                	lw	a3,0(a5)
    c0001ec8:	8ff6f693          	andi	a3,a3,-1793
    c0001ecc:	8f55                	or	a4,a4,a3
    c0001ece:	c398                	sw	a4,0(a5)
	DDR0_RD_EN_MASK  = 0x08;
    c0001ed0:	403007b7          	lui	a5,0x40300
    c0001ed4:	02878793          	addi	a5,a5,40 # 40300028 <__lma_size+0x402f0028>
    c0001ed8:	4721                	li	a4,8
    c0001eda:	00e781a3          	sb	a4,3(a5)
	DDR0_RD_VAL_EDGE = 1;
    c0001ede:	403007b7          	lui	a5,0x40300
    c0001ee2:	02878793          	addi	a5,a5,40 # 40300028 <__lma_size+0x402f0028>
    c0001ee6:	4394                	lw	a3,0(a5)
    c0001ee8:	6741                	lui	a4,0x10
    c0001eea:	8f55                	or	a4,a4,a3
    c0001eec:	c398                	sw	a4,0(a5)
	DDR0_RD_VAL_LTC	= 6;
    c0001eee:	403007b7          	lui	a5,0x40300
    c0001ef2:	02878793          	addi	a5,a5,40 # 40300028 <__lma_size+0x402f0028>
    c0001ef6:	4394                	lw	a3,0(a5)
    c0001ef8:	7745                	lui	a4,0xffff1
    c0001efa:	177d                	addi	a4,a4,-1
    c0001efc:	8f75                	and	a4,a4,a3
    c0001efe:	86ba                	mv	a3,a4
    c0001f00:	6719                	lui	a4,0x6
    c0001f02:	8f55                	or	a4,a4,a3
    c0001f04:	c398                	sw	a4,0(a5)
	DDR0_MRR_VAL_LTC	= 6;
    c0001f06:	403007b7          	lui	a5,0x40300
    c0001f0a:	02878793          	addi	a5,a5,40 # 40300028 <__lma_size+0x402f0028>
    c0001f0e:	4394                	lw	a3,0(a5)
    c0001f10:	777d                	lui	a4,0xfffff
    c0001f12:	0ff70713          	addi	a4,a4,255 # fffffffffffff0ff <_bss_start+0xffffffff3ffef0ff>
    c0001f16:	8f75                	and	a4,a4,a3
    c0001f18:	60076713          	ori	a4,a4,1536
    c0001f1c:	c398                	sw	a4,0(a5)
	DDR0_WR_LTC 		= 1;
    c0001f1e:	403007b7          	lui	a5,0x40300
    c0001f22:	02878793          	addi	a5,a5,40 # 40300028 <__lma_size+0x402f0028>
    c0001f26:	4398                	lw	a4,0(a5)
    c0001f28:	9b61                	andi	a4,a4,-8
    c0001f2a:	00176713          	ori	a4,a4,1
    c0001f2e:	c398                	sw	a4,0(a5)

	DdrOn();
    c0001f30:	ec7ff0ef          	jal	ra,c0001df6 <DdrOn>

	for(i=0;i<16;i++)
    c0001f34:	fe042623          	sw	zero,-20(s0)
    c0001f38:	a04d                	j	c0001fda <DdrInit+0x146>
	{
		DDR0_DLY_CSOUT = i;
    c0001f3a:	403007b7          	lui	a5,0x40300
    c0001f3e:	05078793          	addi	a5,a5,80 # 40300050 <__lma_size+0x402f0050>
    c0001f42:	fec42703          	lw	a4,-20(s0)
    c0001f46:	8b3d                	andi	a4,a4,15
    c0001f48:	0ff77713          	andi	a4,a4,255
    c0001f4c:	8b3d                	andi	a4,a4,15
    c0001f4e:	0087171b          	slliw	a4,a4,0x8
    c0001f52:	4390                	lw	a2,0(a5)
    c0001f54:	76fd                	lui	a3,0xfffff
    c0001f56:	0ff68693          	addi	a3,a3,255 # fffffffffffff0ff <_bss_start+0xffffffff3ffef0ff>
    c0001f5a:	8ef1                	and	a3,a3,a2
    c0001f5c:	8f55                	or	a4,a4,a3
    c0001f5e:	c398                	sw	a4,0(a5)
		CaOutDly(i);
    c0001f60:	fec42783          	lw	a5,-20(s0)
    c0001f64:	853e                	mv	a0,a5
    c0001f66:	f02ff0ef          	jal	ra,c0001668 <CaOutDly>
		char temp = ddr_cal_test();
    c0001f6a:	87bff0ef          	jal	ra,c00017e4 <ddr_cal_test>
    c0001f6e:	87aa                	mv	a5,a0
    c0001f70:	fef404a3          	sb	a5,-23(s0)
		if(temp!=0) printf("_");
    c0001f74:	fe944783          	lbu	a5,-23(s0)
    c0001f78:	0ff7f793          	andi	a5,a5,255
    c0001f7c:	cb81                	beqz	a5,c0001f8c <DdrInit+0xf8>
    c0001f7e:	00002517          	auipc	a0,0x2
    c0001f82:	2e250513          	addi	a0,a0,738 # c0004260 <__text_e+0x180>
    c0001f86:	f7dfe0ef          	jal	ra,c0000f02 <_printf>
    c0001f8a:	a089                	j	c0001fcc <DdrInit+0x138>
		else
		{
			printf("*");
    c0001f8c:	00002517          	auipc	a0,0x2
    c0001f90:	2dc50513          	addi	a0,a0,732 # c0004268 <__text_e+0x188>
    c0001f94:	f6ffe0ef          	jal	ra,c0000f02 <_printf>
			if(min>i) min = i;
    c0001f98:	feb44783          	lbu	a5,-21(s0)
    c0001f9c:	0007871b          	sext.w	a4,a5
    c0001fa0:	fec42783          	lw	a5,-20(s0)
    c0001fa4:	2781                	sext.w	a5,a5
    c0001fa6:	00e7d663          	ble	a4,a5,c0001fb2 <DdrInit+0x11e>
    c0001faa:	fec42783          	lw	a5,-20(s0)
    c0001fae:	fef405a3          	sb	a5,-21(s0)
			if(max<i) max = i;
    c0001fb2:	fea44783          	lbu	a5,-22(s0)
    c0001fb6:	0007871b          	sext.w	a4,a5
    c0001fba:	fec42783          	lw	a5,-20(s0)
    c0001fbe:	2781                	sext.w	a5,a5
    c0001fc0:	00f75663          	ble	a5,a4,c0001fcc <DdrInit+0x138>
    c0001fc4:	fec42783          	lw	a5,-20(s0)
    c0001fc8:	fef40523          	sb	a5,-22(s0)
		}
		DdrOffOn();
    c0001fcc:	eafff0ef          	jal	ra,c0001e7a <DdrOffOn>
	for(i=0;i<16;i++)
    c0001fd0:	fec42783          	lw	a5,-20(s0)
    c0001fd4:	2785                	addiw	a5,a5,1
    c0001fd6:	fef42623          	sw	a5,-20(s0)
    c0001fda:	fec42783          	lw	a5,-20(s0)
    c0001fde:	0007871b          	sext.w	a4,a5
    c0001fe2:	47bd                	li	a5,15
    c0001fe4:	f4e7dbe3          	ble	a4,a5,c0001f3a <DdrInit+0xa6>
	}
	if(min==15){ printf("CA FAIL\n"); while(1);}
    c0001fe8:	feb44783          	lbu	a5,-21(s0)
    c0001fec:	0ff7f713          	andi	a4,a5,255
    c0001ff0:	47bd                	li	a5,15
    c0001ff2:	00f71963          	bne	a4,a5,c0002004 <DdrInit+0x170>
    c0001ff6:	00002517          	auipc	a0,0x2
    c0001ffa:	27a50513          	addi	a0,a0,634 # c0004270 <__text_e+0x190>
    c0001ffe:	f05fe0ef          	jal	ra,c0000f02 <_printf>
    c0002002:	a001                	j	c0002002 <DdrInit+0x16e>
	CaOutDly((max+min+1)>>1);
    c0002004:	fea44783          	lbu	a5,-22(s0)
    c0002008:	0007871b          	sext.w	a4,a5
    c000200c:	feb44783          	lbu	a5,-21(s0)
    c0002010:	2781                	sext.w	a5,a5
    c0002012:	9fb9                	addw	a5,a5,a4
    c0002014:	2781                	sext.w	a5,a5
    c0002016:	2785                	addiw	a5,a5,1
    c0002018:	2781                	sext.w	a5,a5
    c000201a:	4017d79b          	sraiw	a5,a5,0x1
    c000201e:	2781                	sext.w	a5,a5
    c0002020:	853e                	mv	a0,a5
    c0002022:	e46ff0ef          	jal	ra,c0001668 <CaOutDly>
	DDR0_DLY_CSOUT = (max+min+1)>>1;
    c0002026:	fea44783          	lbu	a5,-22(s0)
    c000202a:	0007871b          	sext.w	a4,a5
    c000202e:	feb44783          	lbu	a5,-21(s0)
    c0002032:	2781                	sext.w	a5,a5
    c0002034:	9fb9                	addw	a5,a5,a4
    c0002036:	2781                	sext.w	a5,a5
    c0002038:	2785                	addiw	a5,a5,1
    c000203a:	2781                	sext.w	a5,a5
    c000203c:	4017d79b          	sraiw	a5,a5,0x1
    c0002040:	0007871b          	sext.w	a4,a5
    c0002044:	403007b7          	lui	a5,0x40300
    c0002048:	05078793          	addi	a5,a5,80 # 40300050 <__lma_size+0x402f0050>
    c000204c:	8b3d                	andi	a4,a4,15
    c000204e:	0ff77713          	andi	a4,a4,255
    c0002052:	8b3d                	andi	a4,a4,15
    c0002054:	0087171b          	slliw	a4,a4,0x8
    c0002058:	4390                	lw	a2,0(a5)
    c000205a:	76fd                	lui	a3,0xfffff
    c000205c:	0ff68693          	addi	a3,a3,255 # fffffffffffff0ff <_bss_start+0xffffffff3ffef0ff>
    c0002060:	8ef1                	and	a3,a3,a2
    c0002062:	8f55                	or	a4,a4,a3
    c0002064:	c398                	sw	a4,0(a5)
	printf("DDR0_DLY_CA*OUT : %d  ",DDR0_DLY_CA9OUT);
    c0002066:	403007b7          	lui	a5,0x40300
    c000206a:	05078793          	addi	a5,a5,80 # 40300050 <__lma_size+0x402f0050>
    c000206e:	439c                	lw	a5,0(a5)
    c0002070:	0047d79b          	srliw	a5,a5,0x4
    c0002074:	8bbd                	andi	a5,a5,15
    c0002076:	0ff7f793          	andi	a5,a5,255
    c000207a:	2781                	sext.w	a5,a5
    c000207c:	85be                	mv	a1,a5
    c000207e:	00002517          	auipc	a0,0x2
    c0002082:	20250513          	addi	a0,a0,514 # c0004280 <__text_e+0x1a0>
    c0002086:	e7dfe0ef          	jal	ra,c0000f02 <_printf>
	printf("DDR0_DLY_CSOUT : %d\n",DDR0_DLY_CSOUT);
    c000208a:	403007b7          	lui	a5,0x40300
    c000208e:	05078793          	addi	a5,a5,80 # 40300050 <__lma_size+0x402f0050>
    c0002092:	439c                	lw	a5,0(a5)
    c0002094:	0087d79b          	srliw	a5,a5,0x8
    c0002098:	8bbd                	andi	a5,a5,15
    c000209a:	0ff7f793          	andi	a5,a5,255
    c000209e:	2781                	sext.w	a5,a5
    c00020a0:	85be                	mv	a1,a5
    c00020a2:	00002517          	auipc	a0,0x2
    c00020a6:	1f650513          	addi	a0,a0,502 # c0004298 <__text_e+0x1b8>
    c00020aa:	e59fe0ef          	jal	ra,c0000f02 <_printf>
	DdrOffOn();
    c00020ae:	dcdff0ef          	jal	ra,c0001e7a <DdrOffOn>
	min=15, max=0;
    c00020b2:	47bd                	li	a5,15
    c00020b4:	fef405a3          	sb	a5,-21(s0)
    c00020b8:	fe040523          	sb	zero,-22(s0)
	for(i=0;i<16;i++)
    c00020bc:	fe042623          	sw	zero,-20(s0)
    c00020c0:	a841                	j	c0002150 <DdrInit+0x2bc>
	{
		DDR0_DLY_DQS0IN = i;
    c00020c2:	403007b7          	lui	a5,0x40300
    c00020c6:	06078793          	addi	a5,a5,96 # 40300060 <__lma_size+0x402f0060>
    c00020ca:	fec42703          	lw	a4,-20(s0)
    c00020ce:	8b3d                	andi	a4,a4,15
    c00020d0:	0ff77713          	andi	a4,a4,255
    c00020d4:	8b3d                	andi	a4,a4,15
    c00020d6:	0047171b          	slliw	a4,a4,0x4
    c00020da:	4394                	lw	a3,0(a5)
    c00020dc:	f0f6f693          	andi	a3,a3,-241
    c00020e0:	8f55                	or	a4,a4,a3
    c00020e2:	c398                	sw	a4,0(a5)
		char temp = ddr_cal_test();
    c00020e4:	f00ff0ef          	jal	ra,c00017e4 <ddr_cal_test>
    c00020e8:	87aa                	mv	a5,a0
    c00020ea:	fef40423          	sb	a5,-24(s0)
		if(temp!=0)  printf("_");
    c00020ee:	fe844783          	lbu	a5,-24(s0)
    c00020f2:	0ff7f793          	andi	a5,a5,255
    c00020f6:	cb81                	beqz	a5,c0002106 <DdrInit+0x272>
    c00020f8:	00002517          	auipc	a0,0x2
    c00020fc:	16850513          	addi	a0,a0,360 # c0004260 <__text_e+0x180>
    c0002100:	e03fe0ef          	jal	ra,c0000f02 <_printf>
    c0002104:	a089                	j	c0002146 <DdrInit+0x2b2>
		else
		{
			printf("*");
    c0002106:	00002517          	auipc	a0,0x2
    c000210a:	16250513          	addi	a0,a0,354 # c0004268 <__text_e+0x188>
    c000210e:	df5fe0ef          	jal	ra,c0000f02 <_printf>
			if(min>i) min = i;
    c0002112:	feb44783          	lbu	a5,-21(s0)
    c0002116:	0007871b          	sext.w	a4,a5
    c000211a:	fec42783          	lw	a5,-20(s0)
    c000211e:	2781                	sext.w	a5,a5
    c0002120:	00e7d663          	ble	a4,a5,c000212c <DdrInit+0x298>
    c0002124:	fec42783          	lw	a5,-20(s0)
    c0002128:	fef405a3          	sb	a5,-21(s0)
			if(max<i) max = i;
    c000212c:	fea44783          	lbu	a5,-22(s0)
    c0002130:	0007871b          	sext.w	a4,a5
    c0002134:	fec42783          	lw	a5,-20(s0)
    c0002138:	2781                	sext.w	a5,a5
    c000213a:	00f75663          	ble	a5,a4,c0002146 <DdrInit+0x2b2>
    c000213e:	fec42783          	lw	a5,-20(s0)
    c0002142:	fef40523          	sb	a5,-22(s0)
	for(i=0;i<16;i++)
    c0002146:	fec42783          	lw	a5,-20(s0)
    c000214a:	2785                	addiw	a5,a5,1
    c000214c:	fef42623          	sw	a5,-20(s0)
    c0002150:	fec42783          	lw	a5,-20(s0)
    c0002154:	0007871b          	sext.w	a4,a5
    c0002158:	47bd                	li	a5,15
    c000215a:	f6e7d4e3          	ble	a4,a5,c00020c2 <DdrInit+0x22e>
		}
	}
	if(min==15){ printf("DDR0_DLY_DQS0IN FAIL\n"); while(1);}
    c000215e:	feb44783          	lbu	a5,-21(s0)
    c0002162:	0ff7f713          	andi	a4,a5,255
    c0002166:	47bd                	li	a5,15
    c0002168:	00f71963          	bne	a4,a5,c000217a <DdrInit+0x2e6>
    c000216c:	00002517          	auipc	a0,0x2
    c0002170:	14450513          	addi	a0,a0,324 # c00042b0 <__text_e+0x1d0>
    c0002174:	d8ffe0ef          	jal	ra,c0000f02 <_printf>
    c0002178:	a001                	j	c0002178 <DdrInit+0x2e4>
	DDR0_DLY_DQS0IN = min+2;
    c000217a:	feb44783          	lbu	a5,-21(s0)
    c000217e:	2789                	addiw	a5,a5,2
    c0002180:	0ff7f713          	andi	a4,a5,255
    c0002184:	403007b7          	lui	a5,0x40300
    c0002188:	06078793          	addi	a5,a5,96 # 40300060 <__lma_size+0x402f0060>
    c000218c:	8b3d                	andi	a4,a4,15
    c000218e:	0ff77713          	andi	a4,a4,255
    c0002192:	8b3d                	andi	a4,a4,15
    c0002194:	0047171b          	slliw	a4,a4,0x4
    c0002198:	4394                	lw	a3,0(a5)
    c000219a:	f0f6f693          	andi	a3,a3,-241
    c000219e:	8f55                	or	a4,a4,a3
    c00021a0:	c398                	sw	a4,0(a5)
	printf("DDR0_DLY_DQS0IN : %d\n",DDR0_DLY_DQS0IN);
    c00021a2:	403007b7          	lui	a5,0x40300
    c00021a6:	06078793          	addi	a5,a5,96 # 40300060 <__lma_size+0x402f0060>
    c00021aa:	439c                	lw	a5,0(a5)
    c00021ac:	0047d79b          	srliw	a5,a5,0x4
    c00021b0:	8bbd                	andi	a5,a5,15
    c00021b2:	0ff7f793          	andi	a5,a5,255
    c00021b6:	2781                	sext.w	a5,a5
    c00021b8:	85be                	mv	a1,a5
    c00021ba:	00002517          	auipc	a0,0x2
    c00021be:	10e50513          	addi	a0,a0,270 # c00042c8 <__text_e+0x1e8>
    c00021c2:	d41fe0ef          	jal	ra,c0000f02 <_printf>

	min=15, max=0;
    c00021c6:	47bd                	li	a5,15
    c00021c8:	fef405a3          	sb	a5,-21(s0)
    c00021cc:	fe040523          	sb	zero,-22(s0)
	for(i=0;i<16;i++)
    c00021d0:	fe042623          	sw	zero,-20(s0)
    c00021d4:	a841                	j	c0002264 <DdrInit+0x3d0>
	{
		DDR0_DLY_DQS1IN = i;
    c00021d6:	403007b7          	lui	a5,0x40300
    c00021da:	07078793          	addi	a5,a5,112 # 40300070 <__lma_size+0x402f0070>
    c00021de:	fec42703          	lw	a4,-20(s0)
    c00021e2:	8b3d                	andi	a4,a4,15
    c00021e4:	0ff77713          	andi	a4,a4,255
    c00021e8:	8b3d                	andi	a4,a4,15
    c00021ea:	0047171b          	slliw	a4,a4,0x4
    c00021ee:	4394                	lw	a3,0(a5)
    c00021f0:	f0f6f693          	andi	a3,a3,-241
    c00021f4:	8f55                	or	a4,a4,a3
    c00021f6:	c398                	sw	a4,0(a5)
		char temp = ddr_cal_test();
    c00021f8:	decff0ef          	jal	ra,c00017e4 <ddr_cal_test>
    c00021fc:	87aa                	mv	a5,a0
    c00021fe:	fef403a3          	sb	a5,-25(s0)
		if(temp!=0)  printf("_");
    c0002202:	fe744783          	lbu	a5,-25(s0)
    c0002206:	0ff7f793          	andi	a5,a5,255
    c000220a:	cb81                	beqz	a5,c000221a <DdrInit+0x386>
    c000220c:	00002517          	auipc	a0,0x2
    c0002210:	05450513          	addi	a0,a0,84 # c0004260 <__text_e+0x180>
    c0002214:	ceffe0ef          	jal	ra,c0000f02 <_printf>
    c0002218:	a089                	j	c000225a <DdrInit+0x3c6>
		else
		{
			printf("*");
    c000221a:	00002517          	auipc	a0,0x2
    c000221e:	04e50513          	addi	a0,a0,78 # c0004268 <__text_e+0x188>
    c0002222:	ce1fe0ef          	jal	ra,c0000f02 <_printf>
			if(min>i) min = i;
    c0002226:	feb44783          	lbu	a5,-21(s0)
    c000222a:	0007871b          	sext.w	a4,a5
    c000222e:	fec42783          	lw	a5,-20(s0)
    c0002232:	2781                	sext.w	a5,a5
    c0002234:	00e7d663          	ble	a4,a5,c0002240 <DdrInit+0x3ac>
    c0002238:	fec42783          	lw	a5,-20(s0)
    c000223c:	fef405a3          	sb	a5,-21(s0)
			if(max<i) max = i;
    c0002240:	fea44783          	lbu	a5,-22(s0)
    c0002244:	0007871b          	sext.w	a4,a5
    c0002248:	fec42783          	lw	a5,-20(s0)
    c000224c:	2781                	sext.w	a5,a5
    c000224e:	00f75663          	ble	a5,a4,c000225a <DdrInit+0x3c6>
    c0002252:	fec42783          	lw	a5,-20(s0)
    c0002256:	fef40523          	sb	a5,-22(s0)
	for(i=0;i<16;i++)
    c000225a:	fec42783          	lw	a5,-20(s0)
    c000225e:	2785                	addiw	a5,a5,1
    c0002260:	fef42623          	sw	a5,-20(s0)
    c0002264:	fec42783          	lw	a5,-20(s0)
    c0002268:	0007871b          	sext.w	a4,a5
    c000226c:	47bd                	li	a5,15
    c000226e:	f6e7d4e3          	ble	a4,a5,c00021d6 <DdrInit+0x342>
		}
	}
	if(min==15){ printf("DDR0_DLY_DQS1IN FAIL\n"); while(1);}
    c0002272:	feb44783          	lbu	a5,-21(s0)
    c0002276:	0ff7f713          	andi	a4,a5,255
    c000227a:	47bd                	li	a5,15
    c000227c:	00f71963          	bne	a4,a5,c000228e <DdrInit+0x3fa>
    c0002280:	00002517          	auipc	a0,0x2
    c0002284:	06050513          	addi	a0,a0,96 # c00042e0 <__text_e+0x200>
    c0002288:	c7bfe0ef          	jal	ra,c0000f02 <_printf>
    c000228c:	a001                	j	c000228c <DdrInit+0x3f8>
	DDR0_DLY_DQS1IN = min+2;
    c000228e:	feb44783          	lbu	a5,-21(s0)
    c0002292:	2789                	addiw	a5,a5,2
    c0002294:	0ff7f713          	andi	a4,a5,255
    c0002298:	403007b7          	lui	a5,0x40300
    c000229c:	07078793          	addi	a5,a5,112 # 40300070 <__lma_size+0x402f0070>
    c00022a0:	8b3d                	andi	a4,a4,15
    c00022a2:	0ff77713          	andi	a4,a4,255
    c00022a6:	8b3d                	andi	a4,a4,15
    c00022a8:	0047171b          	slliw	a4,a4,0x4
    c00022ac:	4394                	lw	a3,0(a5)
    c00022ae:	f0f6f693          	andi	a3,a3,-241
    c00022b2:	8f55                	or	a4,a4,a3
    c00022b4:	c398                	sw	a4,0(a5)
	printf("DDR0_DLY_DQS1IN : %d\n",DDR0_DLY_DQS1IN);
    c00022b6:	403007b7          	lui	a5,0x40300
    c00022ba:	07078793          	addi	a5,a5,112 # 40300070 <__lma_size+0x402f0070>
    c00022be:	439c                	lw	a5,0(a5)
    c00022c0:	0047d79b          	srliw	a5,a5,0x4
    c00022c4:	8bbd                	andi	a5,a5,15
    c00022c6:	0ff7f793          	andi	a5,a5,255
    c00022ca:	2781                	sext.w	a5,a5
    c00022cc:	85be                	mv	a1,a5
    c00022ce:	00002517          	auipc	a0,0x2
    c00022d2:	02a50513          	addi	a0,a0,42 # c00042f8 <__text_e+0x218>
    c00022d6:	c2dfe0ef          	jal	ra,c0000f02 <_printf>

	min=15, max=0;
    c00022da:	47bd                	li	a5,15
    c00022dc:	fef405a3          	sb	a5,-21(s0)
    c00022e0:	fe040523          	sb	zero,-22(s0)
	for(i=0;i<16;i++)
    c00022e4:	fe042623          	sw	zero,-20(s0)
    c00022e8:	a841                	j	c0002378 <DdrInit+0x4e4>
	{
		DDR0_DLY_DQS2IN = i;
    c00022ea:	403007b7          	lui	a5,0x40300
    c00022ee:	08078793          	addi	a5,a5,128 # 40300080 <__lma_size+0x402f0080>
    c00022f2:	fec42703          	lw	a4,-20(s0)
    c00022f6:	8b3d                	andi	a4,a4,15
    c00022f8:	0ff77713          	andi	a4,a4,255
    c00022fc:	8b3d                	andi	a4,a4,15
    c00022fe:	0047171b          	slliw	a4,a4,0x4
    c0002302:	4394                	lw	a3,0(a5)
    c0002304:	f0f6f693          	andi	a3,a3,-241
    c0002308:	8f55                	or	a4,a4,a3
    c000230a:	c398                	sw	a4,0(a5)
		char temp = ddr_cal_test();
    c000230c:	cd8ff0ef          	jal	ra,c00017e4 <ddr_cal_test>
    c0002310:	87aa                	mv	a5,a0
    c0002312:	fef40323          	sb	a5,-26(s0)
		if(temp!=0)  printf("_");
    c0002316:	fe644783          	lbu	a5,-26(s0)
    c000231a:	0ff7f793          	andi	a5,a5,255
    c000231e:	cb81                	beqz	a5,c000232e <DdrInit+0x49a>
    c0002320:	00002517          	auipc	a0,0x2
    c0002324:	f4050513          	addi	a0,a0,-192 # c0004260 <__text_e+0x180>
    c0002328:	bdbfe0ef          	jal	ra,c0000f02 <_printf>
    c000232c:	a089                	j	c000236e <DdrInit+0x4da>
		else
		{
			printf("*");
    c000232e:	00002517          	auipc	a0,0x2
    c0002332:	f3a50513          	addi	a0,a0,-198 # c0004268 <__text_e+0x188>
    c0002336:	bcdfe0ef          	jal	ra,c0000f02 <_printf>
			if(min>i) min = i;
    c000233a:	feb44783          	lbu	a5,-21(s0)
    c000233e:	0007871b          	sext.w	a4,a5
    c0002342:	fec42783          	lw	a5,-20(s0)
    c0002346:	2781                	sext.w	a5,a5
    c0002348:	00e7d663          	ble	a4,a5,c0002354 <DdrInit+0x4c0>
    c000234c:	fec42783          	lw	a5,-20(s0)
    c0002350:	fef405a3          	sb	a5,-21(s0)
			if(max<i) max = i;
    c0002354:	fea44783          	lbu	a5,-22(s0)
    c0002358:	0007871b          	sext.w	a4,a5
    c000235c:	fec42783          	lw	a5,-20(s0)
    c0002360:	2781                	sext.w	a5,a5
    c0002362:	00f75663          	ble	a5,a4,c000236e <DdrInit+0x4da>
    c0002366:	fec42783          	lw	a5,-20(s0)
    c000236a:	fef40523          	sb	a5,-22(s0)
	for(i=0;i<16;i++)
    c000236e:	fec42783          	lw	a5,-20(s0)
    c0002372:	2785                	addiw	a5,a5,1
    c0002374:	fef42623          	sw	a5,-20(s0)
    c0002378:	fec42783          	lw	a5,-20(s0)
    c000237c:	0007871b          	sext.w	a4,a5
    c0002380:	47bd                	li	a5,15
    c0002382:	f6e7d4e3          	ble	a4,a5,c00022ea <DdrInit+0x456>
		}
	}
	if(min==15){ printf("DDR0_DLY_DQS2IN FAIL\n"); while(1);}
    c0002386:	feb44783          	lbu	a5,-21(s0)
    c000238a:	0ff7f713          	andi	a4,a5,255
    c000238e:	47bd                	li	a5,15
    c0002390:	00f71963          	bne	a4,a5,c00023a2 <DdrInit+0x50e>
    c0002394:	00002517          	auipc	a0,0x2
    c0002398:	f7c50513          	addi	a0,a0,-132 # c0004310 <__text_e+0x230>
    c000239c:	b67fe0ef          	jal	ra,c0000f02 <_printf>
    c00023a0:	a001                	j	c00023a0 <DdrInit+0x50c>
	DDR0_DLY_DQS2IN = min+2;
    c00023a2:	feb44783          	lbu	a5,-21(s0)
    c00023a6:	2789                	addiw	a5,a5,2
    c00023a8:	0ff7f713          	andi	a4,a5,255
    c00023ac:	403007b7          	lui	a5,0x40300
    c00023b0:	08078793          	addi	a5,a5,128 # 40300080 <__lma_size+0x402f0080>
    c00023b4:	8b3d                	andi	a4,a4,15
    c00023b6:	0ff77713          	andi	a4,a4,255
    c00023ba:	8b3d                	andi	a4,a4,15
    c00023bc:	0047171b          	slliw	a4,a4,0x4
    c00023c0:	4394                	lw	a3,0(a5)
    c00023c2:	f0f6f693          	andi	a3,a3,-241
    c00023c6:	8f55                	or	a4,a4,a3
    c00023c8:	c398                	sw	a4,0(a5)
	printf("DDR0_DLY_DQS2IN : %d\n",DDR0_DLY_DQS2IN);
    c00023ca:	403007b7          	lui	a5,0x40300
    c00023ce:	08078793          	addi	a5,a5,128 # 40300080 <__lma_size+0x402f0080>
    c00023d2:	439c                	lw	a5,0(a5)
    c00023d4:	0047d79b          	srliw	a5,a5,0x4
    c00023d8:	8bbd                	andi	a5,a5,15
    c00023da:	0ff7f793          	andi	a5,a5,255
    c00023de:	2781                	sext.w	a5,a5
    c00023e0:	85be                	mv	a1,a5
    c00023e2:	00002517          	auipc	a0,0x2
    c00023e6:	f4650513          	addi	a0,a0,-186 # c0004328 <__text_e+0x248>
    c00023ea:	b19fe0ef          	jal	ra,c0000f02 <_printf>

	min=15, max=0;
    c00023ee:	47bd                	li	a5,15
    c00023f0:	fef405a3          	sb	a5,-21(s0)
    c00023f4:	fe040523          	sb	zero,-22(s0)
	for(i=0;i<16;i++)
    c00023f8:	fe042623          	sw	zero,-20(s0)
    c00023fc:	a841                	j	c000248c <DdrInit+0x5f8>
	{
		DDR0_DLY_DQS3IN = i;
    c00023fe:	403007b7          	lui	a5,0x40300
    c0002402:	09078793          	addi	a5,a5,144 # 40300090 <__lma_size+0x402f0090>
    c0002406:	fec42703          	lw	a4,-20(s0)
    c000240a:	8b3d                	andi	a4,a4,15
    c000240c:	0ff77713          	andi	a4,a4,255
    c0002410:	8b3d                	andi	a4,a4,15
    c0002412:	0047171b          	slliw	a4,a4,0x4
    c0002416:	4394                	lw	a3,0(a5)
    c0002418:	f0f6f693          	andi	a3,a3,-241
    c000241c:	8f55                	or	a4,a4,a3
    c000241e:	c398                	sw	a4,0(a5)
		char temp = ddr_cal_test();
    c0002420:	bc4ff0ef          	jal	ra,c00017e4 <ddr_cal_test>
    c0002424:	87aa                	mv	a5,a0
    c0002426:	fef402a3          	sb	a5,-27(s0)
		if(temp!=0)  printf("_");
    c000242a:	fe544783          	lbu	a5,-27(s0)
    c000242e:	0ff7f793          	andi	a5,a5,255
    c0002432:	cb81                	beqz	a5,c0002442 <DdrInit+0x5ae>
    c0002434:	00002517          	auipc	a0,0x2
    c0002438:	e2c50513          	addi	a0,a0,-468 # c0004260 <__text_e+0x180>
    c000243c:	ac7fe0ef          	jal	ra,c0000f02 <_printf>
    c0002440:	a089                	j	c0002482 <DdrInit+0x5ee>
		else
		{
			printf("*");
    c0002442:	00002517          	auipc	a0,0x2
    c0002446:	e2650513          	addi	a0,a0,-474 # c0004268 <__text_e+0x188>
    c000244a:	ab9fe0ef          	jal	ra,c0000f02 <_printf>
			if(min>i) min = i;
    c000244e:	feb44783          	lbu	a5,-21(s0)
    c0002452:	0007871b          	sext.w	a4,a5
    c0002456:	fec42783          	lw	a5,-20(s0)
    c000245a:	2781                	sext.w	a5,a5
    c000245c:	00e7d663          	ble	a4,a5,c0002468 <DdrInit+0x5d4>
    c0002460:	fec42783          	lw	a5,-20(s0)
    c0002464:	fef405a3          	sb	a5,-21(s0)
			if(max<i) max = i;
    c0002468:	fea44783          	lbu	a5,-22(s0)
    c000246c:	0007871b          	sext.w	a4,a5
    c0002470:	fec42783          	lw	a5,-20(s0)
    c0002474:	2781                	sext.w	a5,a5
    c0002476:	00f75663          	ble	a5,a4,c0002482 <DdrInit+0x5ee>
    c000247a:	fec42783          	lw	a5,-20(s0)
    c000247e:	fef40523          	sb	a5,-22(s0)
	for(i=0;i<16;i++)
    c0002482:	fec42783          	lw	a5,-20(s0)
    c0002486:	2785                	addiw	a5,a5,1
    c0002488:	fef42623          	sw	a5,-20(s0)
    c000248c:	fec42783          	lw	a5,-20(s0)
    c0002490:	0007871b          	sext.w	a4,a5
    c0002494:	47bd                	li	a5,15
    c0002496:	f6e7d4e3          	ble	a4,a5,c00023fe <DdrInit+0x56a>
		}
	}
	if(min==15){ printf("DDR0_DLY_DQS3IN FAIL\n"); while(1);}
    c000249a:	feb44783          	lbu	a5,-21(s0)
    c000249e:	0ff7f713          	andi	a4,a5,255
    c00024a2:	47bd                	li	a5,15
    c00024a4:	00f71963          	bne	a4,a5,c00024b6 <DdrInit+0x622>
    c00024a8:	00002517          	auipc	a0,0x2
    c00024ac:	e9850513          	addi	a0,a0,-360 # c0004340 <__text_e+0x260>
    c00024b0:	a53fe0ef          	jal	ra,c0000f02 <_printf>
    c00024b4:	a001                	j	c00024b4 <DdrInit+0x620>
	DDR0_DLY_DQS3IN = min+2;
    c00024b6:	feb44783          	lbu	a5,-21(s0)
    c00024ba:	2789                	addiw	a5,a5,2
    c00024bc:	0ff7f713          	andi	a4,a5,255
    c00024c0:	403007b7          	lui	a5,0x40300
    c00024c4:	09078793          	addi	a5,a5,144 # 40300090 <__lma_size+0x402f0090>
    c00024c8:	8b3d                	andi	a4,a4,15
    c00024ca:	0ff77713          	andi	a4,a4,255
    c00024ce:	8b3d                	andi	a4,a4,15
    c00024d0:	0047171b          	slliw	a4,a4,0x4
    c00024d4:	4394                	lw	a3,0(a5)
    c00024d6:	f0f6f693          	andi	a3,a3,-241
    c00024da:	8f55                	or	a4,a4,a3
    c00024dc:	c398                	sw	a4,0(a5)
	DDR0_RD_VAL_LTC	= 7;
    c00024de:	403007b7          	lui	a5,0x40300
    c00024e2:	02878793          	addi	a5,a5,40 # 40300028 <__lma_size+0x402f0028>
    c00024e6:	4394                	lw	a3,0(a5)
    c00024e8:	7745                	lui	a4,0xffff1
    c00024ea:	177d                	addi	a4,a4,-1
    c00024ec:	8f75                	and	a4,a4,a3
    c00024ee:	86ba                	mv	a3,a4
    c00024f0:	671d                	lui	a4,0x7
    c00024f2:	8f55                	or	a4,a4,a3
    c00024f4:	c398                	sw	a4,0(a5)

	printf("DDR0_DLY_DQS3IN : %d\n",DDR0_DLY_DQS3IN);
    c00024f6:	403007b7          	lui	a5,0x40300
    c00024fa:	09078793          	addi	a5,a5,144 # 40300090 <__lma_size+0x402f0090>
    c00024fe:	439c                	lw	a5,0(a5)
    c0002500:	0047d79b          	srliw	a5,a5,0x4
    c0002504:	8bbd                	andi	a5,a5,15
    c0002506:	0ff7f793          	andi	a5,a5,255
    c000250a:	2781                	sext.w	a5,a5
    c000250c:	85be                	mv	a1,a5
    c000250e:	00002517          	auipc	a0,0x2
    c0002512:	e4a50513          	addi	a0,a0,-438 # c0004358 <__text_e+0x278>
    c0002516:	9edfe0ef          	jal	ra,c0000f02 <_printf>

	min=15, max=0;
    c000251a:	47bd                	li	a5,15
    c000251c:	fef405a3          	sb	a5,-21(s0)
    c0002520:	fe040523          	sb	zero,-22(s0)
	for(i=0;i<16;i++)
    c0002524:	fe042623          	sw	zero,-20(s0)
    c0002528:	a049                	j	c00025aa <DdrInit+0x716>
	{
		DmOutDly(i);
    c000252a:	fec42783          	lw	a5,-20(s0)
    c000252e:	853e                	mv	a0,a5
    c0002530:	89cff0ef          	jal	ra,c00015cc <DmOutDly>
		DqOutDly(i);
    c0002534:	fec42783          	lw	a5,-20(s0)
    c0002538:	853e                	mv	a0,a5
    c000253a:	852ff0ef          	jal	ra,c000158c <DqOutDly>
		char temp = ddr_rw_test();
    c000253e:	d34ff0ef          	jal	ra,c0001a72 <ddr_rw_test>
    c0002542:	87aa                	mv	a5,a0
    c0002544:	fef40223          	sb	a5,-28(s0)
		if(temp!=0)  printf("_");
    c0002548:	fe444783          	lbu	a5,-28(s0)
    c000254c:	0ff7f793          	andi	a5,a5,255
    c0002550:	cb81                	beqz	a5,c0002560 <DdrInit+0x6cc>
    c0002552:	00002517          	auipc	a0,0x2
    c0002556:	d0e50513          	addi	a0,a0,-754 # c0004260 <__text_e+0x180>
    c000255a:	9a9fe0ef          	jal	ra,c0000f02 <_printf>
    c000255e:	a089                	j	c00025a0 <DdrInit+0x70c>
		else
		{
			printf("*");
    c0002560:	00002517          	auipc	a0,0x2
    c0002564:	d0850513          	addi	a0,a0,-760 # c0004268 <__text_e+0x188>
    c0002568:	99bfe0ef          	jal	ra,c0000f02 <_printf>
			if(min>i) min = i;
    c000256c:	feb44783          	lbu	a5,-21(s0)
    c0002570:	0007871b          	sext.w	a4,a5
    c0002574:	fec42783          	lw	a5,-20(s0)
    c0002578:	2781                	sext.w	a5,a5
    c000257a:	00e7d663          	ble	a4,a5,c0002586 <DdrInit+0x6f2>
    c000257e:	fec42783          	lw	a5,-20(s0)
    c0002582:	fef405a3          	sb	a5,-21(s0)
			if(max<i) max = i;
    c0002586:	fea44783          	lbu	a5,-22(s0)
    c000258a:	0007871b          	sext.w	a4,a5
    c000258e:	fec42783          	lw	a5,-20(s0)
    c0002592:	2781                	sext.w	a5,a5
    c0002594:	00f75663          	ble	a5,a4,c00025a0 <DdrInit+0x70c>
    c0002598:	fec42783          	lw	a5,-20(s0)
    c000259c:	fef40523          	sb	a5,-22(s0)
	for(i=0;i<16;i++)
    c00025a0:	fec42783          	lw	a5,-20(s0)
    c00025a4:	2785                	addiw	a5,a5,1
    c00025a6:	fef42623          	sw	a5,-20(s0)
    c00025aa:	fec42783          	lw	a5,-20(s0)
    c00025ae:	0007871b          	sext.w	a4,a5
    c00025b2:	47bd                	li	a5,15
    c00025b4:	f6e7dbe3          	ble	a4,a5,c000252a <DdrInit+0x696>
		}
	}
	if(min==15){ printf("DDR0_DMDQ_OUT FAIL\n"); while(1);}
    c00025b8:	feb44783          	lbu	a5,-21(s0)
    c00025bc:	0ff7f713          	andi	a4,a5,255
    c00025c0:	47bd                	li	a5,15
    c00025c2:	00f71963          	bne	a4,a5,c00025d4 <DdrInit+0x740>
    c00025c6:	00002517          	auipc	a0,0x2
    c00025ca:	daa50513          	addi	a0,a0,-598 # c0004370 <__text_e+0x290>
    c00025ce:	935fe0ef          	jal	ra,c0000f02 <_printf>
    c00025d2:	a001                	j	c00025d2 <DdrInit+0x73e>
	DmOutDly(min+2);
    c00025d4:	feb44783          	lbu	a5,-21(s0)
    c00025d8:	2781                	sext.w	a5,a5
    c00025da:	2789                	addiw	a5,a5,2
    c00025dc:	2781                	sext.w	a5,a5
    c00025de:	2781                	sext.w	a5,a5
    c00025e0:	853e                	mv	a0,a5
    c00025e2:	febfe0ef          	jal	ra,c00015cc <DmOutDly>
	DqOutDly(min+2);
    c00025e6:	feb44783          	lbu	a5,-21(s0)
    c00025ea:	2781                	sext.w	a5,a5
    c00025ec:	2789                	addiw	a5,a5,2
    c00025ee:	2781                	sext.w	a5,a5
    c00025f0:	2781                	sext.w	a5,a5
    c00025f2:	853e                	mv	a0,a5
    c00025f4:	f99fe0ef          	jal	ra,c000158c <DqOutDly>
	printf("DDR0_DMDQ_OUT : %d\n",min+2);
    c00025f8:	feb44783          	lbu	a5,-21(s0)
    c00025fc:	2781                	sext.w	a5,a5
    c00025fe:	2789                	addiw	a5,a5,2
    c0002600:	2781                	sext.w	a5,a5
    c0002602:	85be                	mv	a1,a5
    c0002604:	00002517          	auipc	a0,0x2
    c0002608:	d8450513          	addi	a0,a0,-636 # c0004388 <__text_e+0x2a8>
    c000260c:	8f7fe0ef          	jal	ra,c0000f02 <_printf>

	min=15, max=0;
    c0002610:	47bd                	li	a5,15
    c0002612:	fef405a3          	sb	a5,-21(s0)
    c0002616:	fe040523          	sb	zero,-22(s0)
	for(i=0;i<16;i++)
    c000261a:	fe042623          	sw	zero,-20(s0)
    c000261e:	a841                	j	c00026ae <DdrInit+0x81a>
	{
		DDR0_DLY_DM0OUT = i;
    c0002620:	403007b7          	lui	a5,0x40300
    c0002624:	06078793          	addi	a5,a5,96 # 40300060 <__lma_size+0x402f0060>
    c0002628:	fec42703          	lw	a4,-20(s0)
    c000262c:	8b3d                	andi	a4,a4,15
    c000262e:	0ff77713          	andi	a4,a4,255
    c0002632:	00f77613          	andi	a2,a4,15
    c0002636:	4398                	lw	a4,0(a5)
    c0002638:	9b41                	andi	a4,a4,-16
    c000263a:	86ba                	mv	a3,a4
    c000263c:	8732                	mv	a4,a2
    c000263e:	8f55                	or	a4,a4,a3
    c0002640:	c398                	sw	a4,0(a5)
		char temp = ddr_rw_test();
    c0002642:	c30ff0ef          	jal	ra,c0001a72 <ddr_rw_test>
    c0002646:	87aa                	mv	a5,a0
    c0002648:	fef401a3          	sb	a5,-29(s0)
		if(temp!=0)  printf("_");
    c000264c:	fe344783          	lbu	a5,-29(s0)
    c0002650:	0ff7f793          	andi	a5,a5,255
    c0002654:	cb81                	beqz	a5,c0002664 <DdrInit+0x7d0>
    c0002656:	00002517          	auipc	a0,0x2
    c000265a:	c0a50513          	addi	a0,a0,-1014 # c0004260 <__text_e+0x180>
    c000265e:	8a5fe0ef          	jal	ra,c0000f02 <_printf>
    c0002662:	a089                	j	c00026a4 <DdrInit+0x810>
		else
		{
			printf("*");
    c0002664:	00002517          	auipc	a0,0x2
    c0002668:	c0450513          	addi	a0,a0,-1020 # c0004268 <__text_e+0x188>
    c000266c:	897fe0ef          	jal	ra,c0000f02 <_printf>
			if(min>i) min = i;
    c0002670:	feb44783          	lbu	a5,-21(s0)
    c0002674:	0007871b          	sext.w	a4,a5
    c0002678:	fec42783          	lw	a5,-20(s0)
    c000267c:	2781                	sext.w	a5,a5
    c000267e:	00e7d663          	ble	a4,a5,c000268a <DdrInit+0x7f6>
    c0002682:	fec42783          	lw	a5,-20(s0)
    c0002686:	fef405a3          	sb	a5,-21(s0)
			if(max<i) max = i;
    c000268a:	fea44783          	lbu	a5,-22(s0)
    c000268e:	0007871b          	sext.w	a4,a5
    c0002692:	fec42783          	lw	a5,-20(s0)
    c0002696:	2781                	sext.w	a5,a5
    c0002698:	00f75663          	ble	a5,a4,c00026a4 <DdrInit+0x810>
    c000269c:	fec42783          	lw	a5,-20(s0)
    c00026a0:	fef40523          	sb	a5,-22(s0)
	for(i=0;i<16;i++)
    c00026a4:	fec42783          	lw	a5,-20(s0)
    c00026a8:	2785                	addiw	a5,a5,1
    c00026aa:	fef42623          	sw	a5,-20(s0)
    c00026ae:	fec42783          	lw	a5,-20(s0)
    c00026b2:	0007871b          	sext.w	a4,a5
    c00026b6:	47bd                	li	a5,15
    c00026b8:	f6e7d4e3          	ble	a4,a5,c0002620 <DdrInit+0x78c>
		}
	}
	DDR0_DLY_DM0OUT = min+2;
    c00026bc:	feb44783          	lbu	a5,-21(s0)
    c00026c0:	2789                	addiw	a5,a5,2
    c00026c2:	0ff7f713          	andi	a4,a5,255
    c00026c6:	403007b7          	lui	a5,0x40300
    c00026ca:	06078793          	addi	a5,a5,96 # 40300060 <__lma_size+0x402f0060>
    c00026ce:	8b3d                	andi	a4,a4,15
    c00026d0:	0ff77713          	andi	a4,a4,255
    c00026d4:	00f77613          	andi	a2,a4,15
    c00026d8:	4398                	lw	a4,0(a5)
    c00026da:	9b41                	andi	a4,a4,-16
    c00026dc:	86ba                	mv	a3,a4
    c00026de:	8732                	mv	a4,a2
    c00026e0:	8f55                	or	a4,a4,a3
    c00026e2:	c398                	sw	a4,0(a5)
	printf("DDR0_DLY_DM0OUT : %d\n",DDR0_DLY_DM0OUT);
    c00026e4:	403007b7          	lui	a5,0x40300
    c00026e8:	06078793          	addi	a5,a5,96 # 40300060 <__lma_size+0x402f0060>
    c00026ec:	439c                	lw	a5,0(a5)
    c00026ee:	8bbd                	andi	a5,a5,15
    c00026f0:	0ff7f793          	andi	a5,a5,255
    c00026f4:	2781                	sext.w	a5,a5
    c00026f6:	85be                	mv	a1,a5
    c00026f8:	00002517          	auipc	a0,0x2
    c00026fc:	ca850513          	addi	a0,a0,-856 # c00043a0 <__text_e+0x2c0>
    c0002700:	803fe0ef          	jal	ra,c0000f02 <_printf>

	min=15, max=0;
    c0002704:	47bd                	li	a5,15
    c0002706:	fef405a3          	sb	a5,-21(s0)
    c000270a:	fe040523          	sb	zero,-22(s0)
	for(i=0;i<16;i++)
    c000270e:	fe042623          	sw	zero,-20(s0)
    c0002712:	a841                	j	c00027a2 <DdrInit+0x90e>
	{
		DDR0_DLY_DM1OUT = i;
    c0002714:	403007b7          	lui	a5,0x40300
    c0002718:	07078793          	addi	a5,a5,112 # 40300070 <__lma_size+0x402f0070>
    c000271c:	fec42703          	lw	a4,-20(s0)
    c0002720:	8b3d                	andi	a4,a4,15
    c0002722:	0ff77713          	andi	a4,a4,255
    c0002726:	00f77613          	andi	a2,a4,15
    c000272a:	4398                	lw	a4,0(a5)
    c000272c:	9b41                	andi	a4,a4,-16
    c000272e:	86ba                	mv	a3,a4
    c0002730:	8732                	mv	a4,a2
    c0002732:	8f55                	or	a4,a4,a3
    c0002734:	c398                	sw	a4,0(a5)
		char temp = ddr_rw_test();
    c0002736:	b3cff0ef          	jal	ra,c0001a72 <ddr_rw_test>
    c000273a:	87aa                	mv	a5,a0
    c000273c:	fef40123          	sb	a5,-30(s0)
		if(temp!=0)  printf("_");
    c0002740:	fe244783          	lbu	a5,-30(s0)
    c0002744:	0ff7f793          	andi	a5,a5,255
    c0002748:	cb81                	beqz	a5,c0002758 <DdrInit+0x8c4>
    c000274a:	00002517          	auipc	a0,0x2
    c000274e:	b1650513          	addi	a0,a0,-1258 # c0004260 <__text_e+0x180>
    c0002752:	fb0fe0ef          	jal	ra,c0000f02 <_printf>
    c0002756:	a089                	j	c0002798 <DdrInit+0x904>
		else
		{
			printf("*");
    c0002758:	00002517          	auipc	a0,0x2
    c000275c:	b1050513          	addi	a0,a0,-1264 # c0004268 <__text_e+0x188>
    c0002760:	fa2fe0ef          	jal	ra,c0000f02 <_printf>
			if(min>i) min = i;
    c0002764:	feb44783          	lbu	a5,-21(s0)
    c0002768:	0007871b          	sext.w	a4,a5
    c000276c:	fec42783          	lw	a5,-20(s0)
    c0002770:	2781                	sext.w	a5,a5
    c0002772:	00e7d663          	ble	a4,a5,c000277e <DdrInit+0x8ea>
    c0002776:	fec42783          	lw	a5,-20(s0)
    c000277a:	fef405a3          	sb	a5,-21(s0)
			if(max<i) max = i;
    c000277e:	fea44783          	lbu	a5,-22(s0)
    c0002782:	0007871b          	sext.w	a4,a5
    c0002786:	fec42783          	lw	a5,-20(s0)
    c000278a:	2781                	sext.w	a5,a5
    c000278c:	00f75663          	ble	a5,a4,c0002798 <DdrInit+0x904>
    c0002790:	fec42783          	lw	a5,-20(s0)
    c0002794:	fef40523          	sb	a5,-22(s0)
	for(i=0;i<16;i++)
    c0002798:	fec42783          	lw	a5,-20(s0)
    c000279c:	2785                	addiw	a5,a5,1
    c000279e:	fef42623          	sw	a5,-20(s0)
    c00027a2:	fec42783          	lw	a5,-20(s0)
    c00027a6:	0007871b          	sext.w	a4,a5
    c00027aa:	47bd                	li	a5,15
    c00027ac:	f6e7d4e3          	ble	a4,a5,c0002714 <DdrInit+0x880>
		}
	}
	DDR0_DLY_DM1OUT = min+2;
    c00027b0:	feb44783          	lbu	a5,-21(s0)
    c00027b4:	2789                	addiw	a5,a5,2
    c00027b6:	0ff7f713          	andi	a4,a5,255
    c00027ba:	403007b7          	lui	a5,0x40300
    c00027be:	07078793          	addi	a5,a5,112 # 40300070 <__lma_size+0x402f0070>
    c00027c2:	8b3d                	andi	a4,a4,15
    c00027c4:	0ff77713          	andi	a4,a4,255
    c00027c8:	00f77613          	andi	a2,a4,15
    c00027cc:	4398                	lw	a4,0(a5)
    c00027ce:	9b41                	andi	a4,a4,-16
    c00027d0:	86ba                	mv	a3,a4
    c00027d2:	8732                	mv	a4,a2
    c00027d4:	8f55                	or	a4,a4,a3
    c00027d6:	c398                	sw	a4,0(a5)
	printf("DDR0_DLY_DM1OUT : %d\n",DDR0_DLY_DM1OUT);
    c00027d8:	403007b7          	lui	a5,0x40300
    c00027dc:	07078793          	addi	a5,a5,112 # 40300070 <__lma_size+0x402f0070>
    c00027e0:	439c                	lw	a5,0(a5)
    c00027e2:	8bbd                	andi	a5,a5,15
    c00027e4:	0ff7f793          	andi	a5,a5,255
    c00027e8:	2781                	sext.w	a5,a5
    c00027ea:	85be                	mv	a1,a5
    c00027ec:	00002517          	auipc	a0,0x2
    c00027f0:	bcc50513          	addi	a0,a0,-1076 # c00043b8 <__text_e+0x2d8>
    c00027f4:	f0efe0ef          	jal	ra,c0000f02 <_printf>
	min=15, max=0;
    c00027f8:	47bd                	li	a5,15
    c00027fa:	fef405a3          	sb	a5,-21(s0)
    c00027fe:	fe040523          	sb	zero,-22(s0)
	for(i=0;i<16;i++)
    c0002802:	fe042623          	sw	zero,-20(s0)
    c0002806:	a841                	j	c0002896 <DdrInit+0xa02>
	{
		DDR0_DLY_DM2OUT = i;
    c0002808:	403007b7          	lui	a5,0x40300
    c000280c:	08078793          	addi	a5,a5,128 # 40300080 <__lma_size+0x402f0080>
    c0002810:	fec42703          	lw	a4,-20(s0)
    c0002814:	8b3d                	andi	a4,a4,15
    c0002816:	0ff77713          	andi	a4,a4,255
    c000281a:	00f77613          	andi	a2,a4,15
    c000281e:	4398                	lw	a4,0(a5)
    c0002820:	9b41                	andi	a4,a4,-16
    c0002822:	86ba                	mv	a3,a4
    c0002824:	8732                	mv	a4,a2
    c0002826:	8f55                	or	a4,a4,a3
    c0002828:	c398                	sw	a4,0(a5)
		char temp = ddr_rw_test();
    c000282a:	a48ff0ef          	jal	ra,c0001a72 <ddr_rw_test>
    c000282e:	87aa                	mv	a5,a0
    c0002830:	fef400a3          	sb	a5,-31(s0)
		if(temp!=0)  printf("_");
    c0002834:	fe144783          	lbu	a5,-31(s0)
    c0002838:	0ff7f793          	andi	a5,a5,255
    c000283c:	cb81                	beqz	a5,c000284c <DdrInit+0x9b8>
    c000283e:	00002517          	auipc	a0,0x2
    c0002842:	a2250513          	addi	a0,a0,-1502 # c0004260 <__text_e+0x180>
    c0002846:	ebcfe0ef          	jal	ra,c0000f02 <_printf>
    c000284a:	a089                	j	c000288c <DdrInit+0x9f8>
		else
		{
			printf("*");
    c000284c:	00002517          	auipc	a0,0x2
    c0002850:	a1c50513          	addi	a0,a0,-1508 # c0004268 <__text_e+0x188>
    c0002854:	eaefe0ef          	jal	ra,c0000f02 <_printf>
			if(min>i) min = i;
    c0002858:	feb44783          	lbu	a5,-21(s0)
    c000285c:	0007871b          	sext.w	a4,a5
    c0002860:	fec42783          	lw	a5,-20(s0)
    c0002864:	2781                	sext.w	a5,a5
    c0002866:	00e7d663          	ble	a4,a5,c0002872 <DdrInit+0x9de>
    c000286a:	fec42783          	lw	a5,-20(s0)
    c000286e:	fef405a3          	sb	a5,-21(s0)
			if(max<i) max = i;
    c0002872:	fea44783          	lbu	a5,-22(s0)
    c0002876:	0007871b          	sext.w	a4,a5
    c000287a:	fec42783          	lw	a5,-20(s0)
    c000287e:	2781                	sext.w	a5,a5
    c0002880:	00f75663          	ble	a5,a4,c000288c <DdrInit+0x9f8>
    c0002884:	fec42783          	lw	a5,-20(s0)
    c0002888:	fef40523          	sb	a5,-22(s0)
	for(i=0;i<16;i++)
    c000288c:	fec42783          	lw	a5,-20(s0)
    c0002890:	2785                	addiw	a5,a5,1
    c0002892:	fef42623          	sw	a5,-20(s0)
    c0002896:	fec42783          	lw	a5,-20(s0)
    c000289a:	0007871b          	sext.w	a4,a5
    c000289e:	47bd                	li	a5,15
    c00028a0:	f6e7d4e3          	ble	a4,a5,c0002808 <DdrInit+0x974>
		}
	}
	DDR0_DLY_DM2OUT = min+2;
    c00028a4:	feb44783          	lbu	a5,-21(s0)
    c00028a8:	2789                	addiw	a5,a5,2
    c00028aa:	0ff7f713          	andi	a4,a5,255
    c00028ae:	403007b7          	lui	a5,0x40300
    c00028b2:	08078793          	addi	a5,a5,128 # 40300080 <__lma_size+0x402f0080>
    c00028b6:	8b3d                	andi	a4,a4,15
    c00028b8:	0ff77713          	andi	a4,a4,255
    c00028bc:	00f77613          	andi	a2,a4,15
    c00028c0:	4398                	lw	a4,0(a5)
    c00028c2:	9b41                	andi	a4,a4,-16
    c00028c4:	86ba                	mv	a3,a4
    c00028c6:	8732                	mv	a4,a2
    c00028c8:	8f55                	or	a4,a4,a3
    c00028ca:	c398                	sw	a4,0(a5)
	printf("DDR0_DLY_DM2OUT : %d\n",DDR0_DLY_DM2OUT);
    c00028cc:	403007b7          	lui	a5,0x40300
    c00028d0:	08078793          	addi	a5,a5,128 # 40300080 <__lma_size+0x402f0080>
    c00028d4:	439c                	lw	a5,0(a5)
    c00028d6:	8bbd                	andi	a5,a5,15
    c00028d8:	0ff7f793          	andi	a5,a5,255
    c00028dc:	2781                	sext.w	a5,a5
    c00028de:	85be                	mv	a1,a5
    c00028e0:	00002517          	auipc	a0,0x2
    c00028e4:	af050513          	addi	a0,a0,-1296 # c00043d0 <__text_e+0x2f0>
    c00028e8:	e1afe0ef          	jal	ra,c0000f02 <_printf>
	min=15, max=0;
    c00028ec:	47bd                	li	a5,15
    c00028ee:	fef405a3          	sb	a5,-21(s0)
    c00028f2:	fe040523          	sb	zero,-22(s0)
	for(i=0;i<16;i++)
    c00028f6:	fe042623          	sw	zero,-20(s0)
    c00028fa:	a841                	j	c000298a <DdrInit+0xaf6>
	{
		DDR0_DLY_DM3OUT = i;
    c00028fc:	403007b7          	lui	a5,0x40300
    c0002900:	09078793          	addi	a5,a5,144 # 40300090 <__lma_size+0x402f0090>
    c0002904:	fec42703          	lw	a4,-20(s0)
    c0002908:	8b3d                	andi	a4,a4,15
    c000290a:	0ff77713          	andi	a4,a4,255
    c000290e:	00f77613          	andi	a2,a4,15
    c0002912:	4398                	lw	a4,0(a5)
    c0002914:	9b41                	andi	a4,a4,-16
    c0002916:	86ba                	mv	a3,a4
    c0002918:	8732                	mv	a4,a2
    c000291a:	8f55                	or	a4,a4,a3
    c000291c:	c398                	sw	a4,0(a5)
		char temp = ddr_rw_test();
    c000291e:	954ff0ef          	jal	ra,c0001a72 <ddr_rw_test>
    c0002922:	87aa                	mv	a5,a0
    c0002924:	fef40023          	sb	a5,-32(s0)
		if(temp!=0)  printf("_");
    c0002928:	fe044783          	lbu	a5,-32(s0)
    c000292c:	0ff7f793          	andi	a5,a5,255
    c0002930:	cb81                	beqz	a5,c0002940 <DdrInit+0xaac>
    c0002932:	00002517          	auipc	a0,0x2
    c0002936:	92e50513          	addi	a0,a0,-1746 # c0004260 <__text_e+0x180>
    c000293a:	dc8fe0ef          	jal	ra,c0000f02 <_printf>
    c000293e:	a089                	j	c0002980 <DdrInit+0xaec>
		else
		{
			printf("*");
    c0002940:	00002517          	auipc	a0,0x2
    c0002944:	92850513          	addi	a0,a0,-1752 # c0004268 <__text_e+0x188>
    c0002948:	dbafe0ef          	jal	ra,c0000f02 <_printf>
			if(min>i) min = i;
    c000294c:	feb44783          	lbu	a5,-21(s0)
    c0002950:	0007871b          	sext.w	a4,a5
    c0002954:	fec42783          	lw	a5,-20(s0)
    c0002958:	2781                	sext.w	a5,a5
    c000295a:	00e7d663          	ble	a4,a5,c0002966 <DdrInit+0xad2>
    c000295e:	fec42783          	lw	a5,-20(s0)
    c0002962:	fef405a3          	sb	a5,-21(s0)
			if(max<i) max = i;
    c0002966:	fea44783          	lbu	a5,-22(s0)
    c000296a:	0007871b          	sext.w	a4,a5
    c000296e:	fec42783          	lw	a5,-20(s0)
    c0002972:	2781                	sext.w	a5,a5
    c0002974:	00f75663          	ble	a5,a4,c0002980 <DdrInit+0xaec>
    c0002978:	fec42783          	lw	a5,-20(s0)
    c000297c:	fef40523          	sb	a5,-22(s0)
	for(i=0;i<16;i++)
    c0002980:	fec42783          	lw	a5,-20(s0)
    c0002984:	2785                	addiw	a5,a5,1
    c0002986:	fef42623          	sw	a5,-20(s0)
    c000298a:	fec42783          	lw	a5,-20(s0)
    c000298e:	0007871b          	sext.w	a4,a5
    c0002992:	47bd                	li	a5,15
    c0002994:	f6e7d4e3          	ble	a4,a5,c00028fc <DdrInit+0xa68>
		}
	}
	DDR0_DLY_DM3OUT = min+2;
    c0002998:	feb44783          	lbu	a5,-21(s0)
    c000299c:	2789                	addiw	a5,a5,2
    c000299e:	0ff7f713          	andi	a4,a5,255
    c00029a2:	403007b7          	lui	a5,0x40300
    c00029a6:	09078793          	addi	a5,a5,144 # 40300090 <__lma_size+0x402f0090>
    c00029aa:	8b3d                	andi	a4,a4,15
    c00029ac:	0ff77713          	andi	a4,a4,255
    c00029b0:	00f77613          	andi	a2,a4,15
    c00029b4:	4398                	lw	a4,0(a5)
    c00029b6:	9b41                	andi	a4,a4,-16
    c00029b8:	86ba                	mv	a3,a4
    c00029ba:	8732                	mv	a4,a2
    c00029bc:	8f55                	or	a4,a4,a3
    c00029be:	c398                	sw	a4,0(a5)
	printf("DDR0_DLY_DM3OUT : %d\n",DDR0_DLY_DM3OUT);
    c00029c0:	403007b7          	lui	a5,0x40300
    c00029c4:	09078793          	addi	a5,a5,144 # 40300090 <__lma_size+0x402f0090>
    c00029c8:	439c                	lw	a5,0(a5)
    c00029ca:	8bbd                	andi	a5,a5,15
    c00029cc:	0ff7f793          	andi	a5,a5,255
    c00029d0:	2781                	sext.w	a5,a5
    c00029d2:	85be                	mv	a1,a5
    c00029d4:	00002517          	auipc	a0,0x2
    c00029d8:	a1450513          	addi	a0,a0,-1516 # c00043e8 <__text_e+0x308>
    c00029dc:	d26fe0ef          	jal	ra,c0000f02 <_printf>

	min=15, max=0;
    c00029e0:	47bd                	li	a5,15
    c00029e2:	fef405a3          	sb	a5,-21(s0)
    c00029e6:	fe040523          	sb	zero,-22(s0)
	for(i=0;i<16;i++)
    c00029ea:	fe042623          	sw	zero,-20(s0)
    c00029ee:	a8a5                	j	c0002a66 <DdrInit+0xbd2>
	{
		DqG0OutDly(i);
    c00029f0:	fec42783          	lw	a5,-20(s0)
    c00029f4:	853e                	mv	a0,a5
    c00029f6:	eb6fe0ef          	jal	ra,c00010ac <DqG0OutDly>
		char temp = ddr_rw_test();
    c00029fa:	878ff0ef          	jal	ra,c0001a72 <ddr_rw_test>
    c00029fe:	87aa                	mv	a5,a0
    c0002a00:	fcf40fa3          	sb	a5,-33(s0)
		if(temp!=0)  printf("_");
    c0002a04:	fdf44783          	lbu	a5,-33(s0)
    c0002a08:	0ff7f793          	andi	a5,a5,255
    c0002a0c:	cb81                	beqz	a5,c0002a1c <DdrInit+0xb88>
    c0002a0e:	00002517          	auipc	a0,0x2
    c0002a12:	85250513          	addi	a0,a0,-1966 # c0004260 <__text_e+0x180>
    c0002a16:	cecfe0ef          	jal	ra,c0000f02 <_printf>
    c0002a1a:	a089                	j	c0002a5c <DdrInit+0xbc8>
		else
		{
			printf("*");
    c0002a1c:	00002517          	auipc	a0,0x2
    c0002a20:	84c50513          	addi	a0,a0,-1972 # c0004268 <__text_e+0x188>
    c0002a24:	cdefe0ef          	jal	ra,c0000f02 <_printf>
			if(min>i) min = i;
    c0002a28:	feb44783          	lbu	a5,-21(s0)
    c0002a2c:	0007871b          	sext.w	a4,a5
    c0002a30:	fec42783          	lw	a5,-20(s0)
    c0002a34:	2781                	sext.w	a5,a5
    c0002a36:	00e7d663          	ble	a4,a5,c0002a42 <DdrInit+0xbae>
    c0002a3a:	fec42783          	lw	a5,-20(s0)
    c0002a3e:	fef405a3          	sb	a5,-21(s0)
			if(max<i) max = i;
    c0002a42:	fea44783          	lbu	a5,-22(s0)
    c0002a46:	0007871b          	sext.w	a4,a5
    c0002a4a:	fec42783          	lw	a5,-20(s0)
    c0002a4e:	2781                	sext.w	a5,a5
    c0002a50:	00f75663          	ble	a5,a4,c0002a5c <DdrInit+0xbc8>
    c0002a54:	fec42783          	lw	a5,-20(s0)
    c0002a58:	fef40523          	sb	a5,-22(s0)
	for(i=0;i<16;i++)
    c0002a5c:	fec42783          	lw	a5,-20(s0)
    c0002a60:	2785                	addiw	a5,a5,1
    c0002a62:	fef42623          	sw	a5,-20(s0)
    c0002a66:	fec42783          	lw	a5,-20(s0)
    c0002a6a:	0007871b          	sext.w	a4,a5
    c0002a6e:	47bd                	li	a5,15
    c0002a70:	f8e7d0e3          	ble	a4,a5,c00029f0 <DdrInit+0xb5c>
		}
	}
	DqG0OutDly(min+2);
    c0002a74:	feb44783          	lbu	a5,-21(s0)
    c0002a78:	2781                	sext.w	a5,a5
    c0002a7a:	2789                	addiw	a5,a5,2
    c0002a7c:	2781                	sext.w	a5,a5
    c0002a7e:	2781                	sext.w	a5,a5
    c0002a80:	853e                	mv	a0,a5
    c0002a82:	e2afe0ef          	jal	ra,c00010ac <DqG0OutDly>
	printf("DDR0_DQG0_OUT : %d\n",min+2);
    c0002a86:	feb44783          	lbu	a5,-21(s0)
    c0002a8a:	2781                	sext.w	a5,a5
    c0002a8c:	2789                	addiw	a5,a5,2
    c0002a8e:	2781                	sext.w	a5,a5
    c0002a90:	85be                	mv	a1,a5
    c0002a92:	00002517          	auipc	a0,0x2
    c0002a96:	96e50513          	addi	a0,a0,-1682 # c0004400 <__text_e+0x320>
    c0002a9a:	c68fe0ef          	jal	ra,c0000f02 <_printf>
	min=15, max=0;
    c0002a9e:	47bd                	li	a5,15
    c0002aa0:	fef405a3          	sb	a5,-21(s0)
    c0002aa4:	fe040523          	sb	zero,-22(s0)
	for(i=0;i<16;i++)
    c0002aa8:	fe042623          	sw	zero,-20(s0)
    c0002aac:	a8a5                	j	c0002b24 <DdrInit+0xc90>
	{
		DqG1OutDly(i);
    c0002aae:	fec42783          	lw	a5,-20(s0)
    c0002ab2:	853e                	mv	a0,a5
    c0002ab4:	f30fe0ef          	jal	ra,c00011e4 <DqG1OutDly>
		char temp = ddr_rw_test();
    c0002ab8:	fbbfe0ef          	jal	ra,c0001a72 <ddr_rw_test>
    c0002abc:	87aa                	mv	a5,a0
    c0002abe:	fcf40f23          	sb	a5,-34(s0)
		if(temp!=0)  printf("_");
    c0002ac2:	fde44783          	lbu	a5,-34(s0)
    c0002ac6:	0ff7f793          	andi	a5,a5,255
    c0002aca:	cb81                	beqz	a5,c0002ada <DdrInit+0xc46>
    c0002acc:	00001517          	auipc	a0,0x1
    c0002ad0:	79450513          	addi	a0,a0,1940 # c0004260 <__text_e+0x180>
    c0002ad4:	c2efe0ef          	jal	ra,c0000f02 <_printf>
    c0002ad8:	a089                	j	c0002b1a <DdrInit+0xc86>
		else
		{
			printf("*");
    c0002ada:	00001517          	auipc	a0,0x1
    c0002ade:	78e50513          	addi	a0,a0,1934 # c0004268 <__text_e+0x188>
    c0002ae2:	c20fe0ef          	jal	ra,c0000f02 <_printf>
			if(min>i) min = i;
    c0002ae6:	feb44783          	lbu	a5,-21(s0)
    c0002aea:	0007871b          	sext.w	a4,a5
    c0002aee:	fec42783          	lw	a5,-20(s0)
    c0002af2:	2781                	sext.w	a5,a5
    c0002af4:	00e7d663          	ble	a4,a5,c0002b00 <DdrInit+0xc6c>
    c0002af8:	fec42783          	lw	a5,-20(s0)
    c0002afc:	fef405a3          	sb	a5,-21(s0)
			if(max<i) max = i;
    c0002b00:	fea44783          	lbu	a5,-22(s0)
    c0002b04:	0007871b          	sext.w	a4,a5
    c0002b08:	fec42783          	lw	a5,-20(s0)
    c0002b0c:	2781                	sext.w	a5,a5
    c0002b0e:	00f75663          	ble	a5,a4,c0002b1a <DdrInit+0xc86>
    c0002b12:	fec42783          	lw	a5,-20(s0)
    c0002b16:	fef40523          	sb	a5,-22(s0)
	for(i=0;i<16;i++)
    c0002b1a:	fec42783          	lw	a5,-20(s0)
    c0002b1e:	2785                	addiw	a5,a5,1
    c0002b20:	fef42623          	sw	a5,-20(s0)
    c0002b24:	fec42783          	lw	a5,-20(s0)
    c0002b28:	0007871b          	sext.w	a4,a5
    c0002b2c:	47bd                	li	a5,15
    c0002b2e:	f8e7d0e3          	ble	a4,a5,c0002aae <DdrInit+0xc1a>
		}
	}
	DqG1OutDly(min+2);
    c0002b32:	feb44783          	lbu	a5,-21(s0)
    c0002b36:	2781                	sext.w	a5,a5
    c0002b38:	2789                	addiw	a5,a5,2
    c0002b3a:	2781                	sext.w	a5,a5
    c0002b3c:	2781                	sext.w	a5,a5
    c0002b3e:	853e                	mv	a0,a5
    c0002b40:	ea4fe0ef          	jal	ra,c00011e4 <DqG1OutDly>
	printf("DDR0_DQG1_OUT : %d\n",min+2);
    c0002b44:	feb44783          	lbu	a5,-21(s0)
    c0002b48:	2781                	sext.w	a5,a5
    c0002b4a:	2789                	addiw	a5,a5,2
    c0002b4c:	2781                	sext.w	a5,a5
    c0002b4e:	85be                	mv	a1,a5
    c0002b50:	00002517          	auipc	a0,0x2
    c0002b54:	8c850513          	addi	a0,a0,-1848 # c0004418 <__text_e+0x338>
    c0002b58:	baafe0ef          	jal	ra,c0000f02 <_printf>
	min=15, max=0;
    c0002b5c:	47bd                	li	a5,15
    c0002b5e:	fef405a3          	sb	a5,-21(s0)
    c0002b62:	fe040523          	sb	zero,-22(s0)
	for(i=0;i<16;i++)
    c0002b66:	fe042623          	sw	zero,-20(s0)
    c0002b6a:	a8a5                	j	c0002be2 <DdrInit+0xd4e>
	{
		DqG2OutDly(i);
    c0002b6c:	fec42783          	lw	a5,-20(s0)
    c0002b70:	853e                	mv	a0,a5
    c0002b72:	faafe0ef          	jal	ra,c000131c <DqG2OutDly>
		char temp = ddr_rw_test();
    c0002b76:	efdfe0ef          	jal	ra,c0001a72 <ddr_rw_test>
    c0002b7a:	87aa                	mv	a5,a0
    c0002b7c:	fcf40ea3          	sb	a5,-35(s0)
		if(temp!=0)  printf("_");
    c0002b80:	fdd44783          	lbu	a5,-35(s0)
    c0002b84:	0ff7f793          	andi	a5,a5,255
    c0002b88:	cb81                	beqz	a5,c0002b98 <DdrInit+0xd04>
    c0002b8a:	00001517          	auipc	a0,0x1
    c0002b8e:	6d650513          	addi	a0,a0,1750 # c0004260 <__text_e+0x180>
    c0002b92:	b70fe0ef          	jal	ra,c0000f02 <_printf>
    c0002b96:	a089                	j	c0002bd8 <DdrInit+0xd44>
		else
		{
			printf("*");
    c0002b98:	00001517          	auipc	a0,0x1
    c0002b9c:	6d050513          	addi	a0,a0,1744 # c0004268 <__text_e+0x188>
    c0002ba0:	b62fe0ef          	jal	ra,c0000f02 <_printf>
			if(min>i) min = i;
    c0002ba4:	feb44783          	lbu	a5,-21(s0)
    c0002ba8:	0007871b          	sext.w	a4,a5
    c0002bac:	fec42783          	lw	a5,-20(s0)
    c0002bb0:	2781                	sext.w	a5,a5
    c0002bb2:	00e7d663          	ble	a4,a5,c0002bbe <DdrInit+0xd2a>
    c0002bb6:	fec42783          	lw	a5,-20(s0)
    c0002bba:	fef405a3          	sb	a5,-21(s0)
			if(max<i) max = i;
    c0002bbe:	fea44783          	lbu	a5,-22(s0)
    c0002bc2:	0007871b          	sext.w	a4,a5
    c0002bc6:	fec42783          	lw	a5,-20(s0)
    c0002bca:	2781                	sext.w	a5,a5
    c0002bcc:	00f75663          	ble	a5,a4,c0002bd8 <DdrInit+0xd44>
    c0002bd0:	fec42783          	lw	a5,-20(s0)
    c0002bd4:	fef40523          	sb	a5,-22(s0)
	for(i=0;i<16;i++)
    c0002bd8:	fec42783          	lw	a5,-20(s0)
    c0002bdc:	2785                	addiw	a5,a5,1
    c0002bde:	fef42623          	sw	a5,-20(s0)
    c0002be2:	fec42783          	lw	a5,-20(s0)
    c0002be6:	0007871b          	sext.w	a4,a5
    c0002bea:	47bd                	li	a5,15
    c0002bec:	f8e7d0e3          	ble	a4,a5,c0002b6c <DdrInit+0xcd8>
		}
	}
	DqG2OutDly(min+2);
    c0002bf0:	feb44783          	lbu	a5,-21(s0)
    c0002bf4:	2781                	sext.w	a5,a5
    c0002bf6:	2789                	addiw	a5,a5,2
    c0002bf8:	2781                	sext.w	a5,a5
    c0002bfa:	2781                	sext.w	a5,a5
    c0002bfc:	853e                	mv	a0,a5
    c0002bfe:	f1efe0ef          	jal	ra,c000131c <DqG2OutDly>
	printf("DDR0_DQG2_OUT : %d\n",min+2);
    c0002c02:	feb44783          	lbu	a5,-21(s0)
    c0002c06:	2781                	sext.w	a5,a5
    c0002c08:	2789                	addiw	a5,a5,2
    c0002c0a:	2781                	sext.w	a5,a5
    c0002c0c:	85be                	mv	a1,a5
    c0002c0e:	00002517          	auipc	a0,0x2
    c0002c12:	82250513          	addi	a0,a0,-2014 # c0004430 <__text_e+0x350>
    c0002c16:	aecfe0ef          	jal	ra,c0000f02 <_printf>



	min=15, max=0;
    c0002c1a:	47bd                	li	a5,15
    c0002c1c:	fef405a3          	sb	a5,-21(s0)
    c0002c20:	fe040523          	sb	zero,-22(s0)
	for(i=0;i<16;i++)
    c0002c24:	fe042623          	sw	zero,-20(s0)
    c0002c28:	a8a5                	j	c0002ca0 <DdrInit+0xe0c>
	{
		DqG3OutDly(i);
    c0002c2a:	fec42783          	lw	a5,-20(s0)
    c0002c2e:	853e                	mv	a0,a5
    c0002c30:	825fe0ef          	jal	ra,c0001454 <DqG3OutDly>
		char temp = ddr_rw_test();
    c0002c34:	e3ffe0ef          	jal	ra,c0001a72 <ddr_rw_test>
    c0002c38:	87aa                	mv	a5,a0
    c0002c3a:	fcf40e23          	sb	a5,-36(s0)
		if(temp!=0)  printf("_");
    c0002c3e:	fdc44783          	lbu	a5,-36(s0)
    c0002c42:	0ff7f793          	andi	a5,a5,255
    c0002c46:	cb81                	beqz	a5,c0002c56 <DdrInit+0xdc2>
    c0002c48:	00001517          	auipc	a0,0x1
    c0002c4c:	61850513          	addi	a0,a0,1560 # c0004260 <__text_e+0x180>
    c0002c50:	ab2fe0ef          	jal	ra,c0000f02 <_printf>
    c0002c54:	a089                	j	c0002c96 <DdrInit+0xe02>
		else
		{
			printf("*");
    c0002c56:	00001517          	auipc	a0,0x1
    c0002c5a:	61250513          	addi	a0,a0,1554 # c0004268 <__text_e+0x188>
    c0002c5e:	aa4fe0ef          	jal	ra,c0000f02 <_printf>
			if(min>i) min = i;
    c0002c62:	feb44783          	lbu	a5,-21(s0)
    c0002c66:	0007871b          	sext.w	a4,a5
    c0002c6a:	fec42783          	lw	a5,-20(s0)
    c0002c6e:	2781                	sext.w	a5,a5
    c0002c70:	00e7d663          	ble	a4,a5,c0002c7c <DdrInit+0xde8>
    c0002c74:	fec42783          	lw	a5,-20(s0)
    c0002c78:	fef405a3          	sb	a5,-21(s0)
			if(max<i) max = i;
    c0002c7c:	fea44783          	lbu	a5,-22(s0)
    c0002c80:	0007871b          	sext.w	a4,a5
    c0002c84:	fec42783          	lw	a5,-20(s0)
    c0002c88:	2781                	sext.w	a5,a5
    c0002c8a:	00f75663          	ble	a5,a4,c0002c96 <DdrInit+0xe02>
    c0002c8e:	fec42783          	lw	a5,-20(s0)
    c0002c92:	fef40523          	sb	a5,-22(s0)
	for(i=0;i<16;i++)
    c0002c96:	fec42783          	lw	a5,-20(s0)
    c0002c9a:	2785                	addiw	a5,a5,1
    c0002c9c:	fef42623          	sw	a5,-20(s0)
    c0002ca0:	fec42783          	lw	a5,-20(s0)
    c0002ca4:	0007871b          	sext.w	a4,a5
    c0002ca8:	47bd                	li	a5,15
    c0002caa:	f8e7d0e3          	ble	a4,a5,c0002c2a <DdrInit+0xd96>
		}
	}
	DqG3OutDly(min+2);
    c0002cae:	feb44783          	lbu	a5,-21(s0)
    c0002cb2:	2781                	sext.w	a5,a5
    c0002cb4:	2789                	addiw	a5,a5,2
    c0002cb6:	2781                	sext.w	a5,a5
    c0002cb8:	2781                	sext.w	a5,a5
    c0002cba:	853e                	mv	a0,a5
    c0002cbc:	f98fe0ef          	jal	ra,c0001454 <DqG3OutDly>
	printf("DDR0_DQG3_OUT : %d\n",min+2);
    c0002cc0:	feb44783          	lbu	a5,-21(s0)
    c0002cc4:	2781                	sext.w	a5,a5
    c0002cc6:	2789                	addiw	a5,a5,2
    c0002cc8:	2781                	sext.w	a5,a5
    c0002cca:	85be                	mv	a1,a5
    c0002ccc:	00001517          	auipc	a0,0x1
    c0002cd0:	77c50513          	addi	a0,a0,1916 # c0004448 <__text_e+0x368>
    c0002cd4:	a2efe0ef          	jal	ra,c0000f02 <_printf>

	//DdrMapTest();
}
    c0002cd8:	0001                	nop
    c0002cda:	70e2                	ld	ra,56(sp)
    c0002cdc:	7442                	ld	s0,48(sp)
    c0002cde:	6121                	addi	sp,sp,64
    c0002ce0:	8082                	ret

00000000c0002ce2 <dma_copy>:
#include "reg.h"
#include "dma.h"
#include "rv_utils.h"

void dma_copy(UINT dst, UINT src, UINT len)
{
    c0002ce2:	1101                	addi	sp,sp,-32
    c0002ce4:	ec06                	sd	ra,24(sp)
    c0002ce6:	e822                	sd	s0,16(sp)
    c0002ce8:	1000                	addi	s0,sp,32
    c0002cea:	87aa                	mv	a5,a0
    c0002cec:	86ae                	mv	a3,a1
    c0002cee:	8732                	mv	a4,a2
    c0002cf0:	fef42623          	sw	a5,-20(s0)
    c0002cf4:	87b6                	mv	a5,a3
    c0002cf6:	fef42423          	sw	a5,-24(s0)
    c0002cfa:	87ba                	mv	a5,a4
    c0002cfc:	fef42223          	sw	a5,-28(s0)
	hwflush_dcache_range(src,src+len);
    c0002d00:	fe842703          	lw	a4,-24(s0)
    c0002d04:	fe442783          	lw	a5,-28(s0)
    c0002d08:	9fb9                	addw	a5,a5,a4
    c0002d0a:	0007871b          	sext.w	a4,a5
    c0002d0e:	fe842783          	lw	a5,-24(s0)
    c0002d12:	85ba                	mv	a1,a4
    c0002d14:	853e                	mv	a0,a5
    c0002d16:	3f0000ef          	jal	ra,c0003106 <hwflush_dcache_range>
	hwflush_dcache_range(dst,dst+len);
    c0002d1a:	fec42703          	lw	a4,-20(s0)
    c0002d1e:	fe442783          	lw	a5,-28(s0)
    c0002d22:	9fb9                	addw	a5,a5,a4
    c0002d24:	0007871b          	sext.w	a4,a5
    c0002d28:	fec42783          	lw	a5,-20(s0)
    c0002d2c:	85ba                	mv	a1,a4
    c0002d2e:	853e                	mv	a0,a5
    c0002d30:	3d6000ef          	jal	ra,c0003106 <hwflush_dcache_range>
	BDMA0_JOB_PTR++;
    c0002d34:	452007b7          	lui	a5,0x45200
    c0002d38:	4398                	lw	a4,0(a5)
    c0002d3a:	00e7571b          	srliw	a4,a4,0xe
    c0002d3e:	03f77713          	andi	a4,a4,63
    c0002d42:	0ff77713          	andi	a4,a4,255
    c0002d46:	2705                	addiw	a4,a4,1
    c0002d48:	03f77713          	andi	a4,a4,63
    c0002d4c:	0ff77713          	andi	a4,a4,255
    c0002d50:	03f77713          	andi	a4,a4,63
    c0002d54:	00e7171b          	slliw	a4,a4,0xe
    c0002d58:	4390                	lw	a2,0(a5)
    c0002d5a:	fff046b7          	lui	a3,0xfff04
    c0002d5e:	16fd                	addi	a3,a3,-1
    c0002d60:	8ef1                	and	a3,a3,a2
    c0002d62:	8f55                	or	a4,a4,a3
    c0002d64:	c398                	sw	a4,0(a5)
	BDMA0_MODE = 0;
    c0002d66:	452007b7          	lui	a5,0x45200
    c0002d6a:	4398                	lw	a4,0(a5)
    c0002d6c:	9b65                	andi	a4,a4,-7
    c0002d6e:	c398                	sw	a4,0(a5)
	BDMA0_SRC = src;
    c0002d70:	452007b7          	lui	a5,0x45200
    c0002d74:	07a1                	addi	a5,a5,8
    c0002d76:	fe842703          	lw	a4,-24(s0)
    c0002d7a:	c398                	sw	a4,0(a5)
	BDMA0_DST = dst;
    c0002d7c:	452007b7          	lui	a5,0x45200
    c0002d80:	07c1                	addi	a5,a5,16
    c0002d82:	fec42703          	lw	a4,-20(s0)
    c0002d86:	c398                	sw	a4,0(a5)
	BDMA0_LEN = len;
    c0002d88:	452007b7          	lui	a5,0x45200
    c0002d8c:	07e1                	addi	a5,a5,24
    c0002d8e:	fe442703          	lw	a4,-28(s0)
    c0002d92:	c398                	sw	a4,0(a5)
	BDMA0_GO = 1;
    c0002d94:	452007b7          	lui	a5,0x45200
    c0002d98:	4398                	lw	a4,0(a5)
    c0002d9a:	00176713          	ori	a4,a4,1
    c0002d9e:	c398                	sw	a4,0(a5)
	while(BDMA0_DONE_PTR!=BDMA0_JOB_PTR){
    c0002da0:	0001                	nop
    c0002da2:	452007b7          	lui	a5,0x45200
    c0002da6:	439c                	lw	a5,0(a5)
    c0002da8:	0167d79b          	srliw	a5,a5,0x16
    c0002dac:	03f7f793          	andi	a5,a5,63
    c0002db0:	0ff7f713          	andi	a4,a5,255
    c0002db4:	452007b7          	lui	a5,0x45200
    c0002db8:	439c                	lw	a5,0(a5)
    c0002dba:	00e7d79b          	srliw	a5,a5,0xe
    c0002dbe:	03f7f793          	andi	a5,a5,63
    c0002dc2:	0ff7f793          	andi	a5,a5,255
    c0002dc6:	fcf71ee3          	bne	a4,a5,c0002da2 <dma_copy+0xc0>
		//_printf("!");
	}

}
    c0002dca:	0001                	nop
    c0002dcc:	60e2                	ld	ra,24(sp)
    c0002dce:	6442                	ld	s0,16(sp)
    c0002dd0:	6105                	addi	sp,sp,32
    c0002dd2:	8082                	ret

00000000c0002dd4 <dma_set>:

void dma_set(UINT dst, UINT len, BYTE value)
{
    c0002dd4:	1101                	addi	sp,sp,-32
    c0002dd6:	ec22                	sd	s0,24(sp)
    c0002dd8:	1000                	addi	s0,sp,32
    c0002dda:	87aa                	mv	a5,a0
    c0002ddc:	86ae                	mv	a3,a1
    c0002dde:	8732                	mv	a4,a2
    c0002de0:	fef42623          	sw	a5,-20(s0)
    c0002de4:	87b6                	mv	a5,a3
    c0002de6:	fef42423          	sw	a5,-24(s0)
    c0002dea:	87ba                	mv	a5,a4
    c0002dec:	fef403a3          	sb	a5,-25(s0)
	BDMA0_JOB_PTR++;
    c0002df0:	452007b7          	lui	a5,0x45200
    c0002df4:	4398                	lw	a4,0(a5)
    c0002df6:	00e7571b          	srliw	a4,a4,0xe
    c0002dfa:	03f77713          	andi	a4,a4,63
    c0002dfe:	0ff77713          	andi	a4,a4,255
    c0002e02:	2705                	addiw	a4,a4,1
    c0002e04:	03f77713          	andi	a4,a4,63
    c0002e08:	0ff77713          	andi	a4,a4,255
    c0002e0c:	03f77713          	andi	a4,a4,63
    c0002e10:	00e7171b          	slliw	a4,a4,0xe
    c0002e14:	4390                	lw	a2,0(a5)
    c0002e16:	fff046b7          	lui	a3,0xfff04
    c0002e1a:	16fd                	addi	a3,a3,-1
    c0002e1c:	8ef1                	and	a3,a3,a2
    c0002e1e:	8f55                	or	a4,a4,a3
    c0002e20:	c398                	sw	a4,0(a5)
	BDMA0_VALUE = value;
    c0002e22:	452007b7          	lui	a5,0x45200
    c0002e26:	fe744703          	lbu	a4,-25(s0)
    c0002e2a:	0037171b          	slliw	a4,a4,0x3
    c0002e2e:	4394                	lw	a3,0(a5)
    c0002e30:	8076f693          	andi	a3,a3,-2041
    c0002e34:	8f55                	or	a4,a4,a3
    c0002e36:	c398                	sw	a4,0(a5)
	BDMA0_MODE = 1;
    c0002e38:	452007b7          	lui	a5,0x45200
    c0002e3c:	4398                	lw	a4,0(a5)
    c0002e3e:	9b65                	andi	a4,a4,-7
    c0002e40:	00276713          	ori	a4,a4,2
    c0002e44:	c398                	sw	a4,0(a5)
	BDMA0_DST = dst;
    c0002e46:	452007b7          	lui	a5,0x45200
    c0002e4a:	07c1                	addi	a5,a5,16
    c0002e4c:	fec42703          	lw	a4,-20(s0)
    c0002e50:	c398                	sw	a4,0(a5)
	BDMA0_LEN = len;
    c0002e52:	452007b7          	lui	a5,0x45200
    c0002e56:	07e1                	addi	a5,a5,24
    c0002e58:	fe842703          	lw	a4,-24(s0)
    c0002e5c:	c398                	sw	a4,0(a5)
	BDMA0_GO = 1;
    c0002e5e:	452007b7          	lui	a5,0x45200
    c0002e62:	4398                	lw	a4,0(a5)
    c0002e64:	00176713          	ori	a4,a4,1
    c0002e68:	c398                	sw	a4,0(a5)
	while(BDMA0_DONE_PTR!=BDMA0_JOB_PTR);
    c0002e6a:	0001                	nop
    c0002e6c:	452007b7          	lui	a5,0x45200
    c0002e70:	439c                	lw	a5,0(a5)
    c0002e72:	0167d79b          	srliw	a5,a5,0x16
    c0002e76:	03f7f793          	andi	a5,a5,63
    c0002e7a:	0ff7f713          	andi	a4,a5,255
    c0002e7e:	452007b7          	lui	a5,0x45200
    c0002e82:	439c                	lw	a5,0(a5)
    c0002e84:	00e7d79b          	srliw	a5,a5,0xe
    c0002e88:	03f7f793          	andi	a5,a5,63
    c0002e8c:	0ff7f793          	andi	a5,a5,255
    c0002e90:	fcf71ee3          	bne	a4,a5,c0002e6c <dma_set+0x98>
}
    c0002e94:	0001                	nop
    c0002e96:	6462                	ld	s0,24(sp)
    c0002e98:	6105                	addi	sp,sp,32
    c0002e9a:	8082                	ret

00000000c0002e9c <cdma_copy>:
void cdma_copy(UINT dst, UINT src, UINT len)
{
    c0002e9c:	1101                	addi	sp,sp,-32
    c0002e9e:	ec22                	sd	s0,24(sp)
    c0002ea0:	1000                	addi	s0,sp,32
    c0002ea2:	87aa                	mv	a5,a0
    c0002ea4:	86ae                	mv	a3,a1
    c0002ea6:	8732                	mv	a4,a2
    c0002ea8:	fef42623          	sw	a5,-20(s0)
    c0002eac:	87b6                	mv	a5,a3
    c0002eae:	fef42423          	sw	a5,-24(s0)
    c0002eb2:	87ba                	mv	a5,a4
    c0002eb4:	fef42223          	sw	a5,-28(s0)
//	hwflush_dcache_range_(src,len);
	CDMA0_JOB_PTR++;
    c0002eb8:	44b007b7          	lui	a5,0x44b00
    c0002ebc:	4398                	lw	a4,0(a5)
    c0002ebe:	00e7571b          	srliw	a4,a4,0xe
    c0002ec2:	03f77713          	andi	a4,a4,63
    c0002ec6:	0ff77713          	andi	a4,a4,255
    c0002eca:	2705                	addiw	a4,a4,1
    c0002ecc:	03f77713          	andi	a4,a4,63
    c0002ed0:	0ff77713          	andi	a4,a4,255
    c0002ed4:	03f77713          	andi	a4,a4,63
    c0002ed8:	00e7171b          	slliw	a4,a4,0xe
    c0002edc:	4390                	lw	a2,0(a5)
    c0002ede:	fff046b7          	lui	a3,0xfff04
    c0002ee2:	16fd                	addi	a3,a3,-1
    c0002ee4:	8ef1                	and	a3,a3,a2
    c0002ee6:	8f55                	or	a4,a4,a3
    c0002ee8:	c398                	sw	a4,0(a5)
	CDMA0_MODE = 0;
    c0002eea:	44b007b7          	lui	a5,0x44b00
    c0002eee:	4398                	lw	a4,0(a5)
    c0002ef0:	9b65                	andi	a4,a4,-7
    c0002ef2:	c398                	sw	a4,0(a5)
	CDMA0_SRC = src;
    c0002ef4:	44b007b7          	lui	a5,0x44b00
    c0002ef8:	07a1                	addi	a5,a5,8
    c0002efa:	fe842703          	lw	a4,-24(s0)
    c0002efe:	c398                	sw	a4,0(a5)
	CDMA0_DST = dst;
    c0002f00:	44b007b7          	lui	a5,0x44b00
    c0002f04:	07c1                	addi	a5,a5,16
    c0002f06:	fec42703          	lw	a4,-20(s0)
    c0002f0a:	c398                	sw	a4,0(a5)
	CDMA0_LEN = len;
    c0002f0c:	44b007b7          	lui	a5,0x44b00
    c0002f10:	07e1                	addi	a5,a5,24
    c0002f12:	fe442703          	lw	a4,-28(s0)
    c0002f16:	c398                	sw	a4,0(a5)
	CDMA0_GO = 1;
    c0002f18:	44b007b7          	lui	a5,0x44b00
    c0002f1c:	4398                	lw	a4,0(a5)
    c0002f1e:	00176713          	ori	a4,a4,1
    c0002f22:	c398                	sw	a4,0(a5)
	while(CDMA0_DONE_PTR!=CDMA0_JOB_PTR);
    c0002f24:	0001                	nop
    c0002f26:	44b007b7          	lui	a5,0x44b00
    c0002f2a:	439c                	lw	a5,0(a5)
    c0002f2c:	0167d79b          	srliw	a5,a5,0x16
    c0002f30:	03f7f793          	andi	a5,a5,63
    c0002f34:	0ff7f713          	andi	a4,a5,255
    c0002f38:	44b007b7          	lui	a5,0x44b00
    c0002f3c:	439c                	lw	a5,0(a5)
    c0002f3e:	00e7d79b          	srliw	a5,a5,0xe
    c0002f42:	03f7f793          	andi	a5,a5,63
    c0002f46:	0ff7f793          	andi	a5,a5,255
    c0002f4a:	fcf71ee3          	bne	a4,a5,c0002f26 <cdma_copy+0x8a>
}
    c0002f4e:	0001                	nop
    c0002f50:	6462                	ld	s0,24(sp)
    c0002f52:	6105                	addi	sp,sp,32
    c0002f54:	8082                	ret

00000000c0002f56 <cdma_set>:

void cdma_set(UINT dst, UINT len, BYTE value)
{
    c0002f56:	1101                	addi	sp,sp,-32
    c0002f58:	ec22                	sd	s0,24(sp)
    c0002f5a:	1000                	addi	s0,sp,32
    c0002f5c:	87aa                	mv	a5,a0
    c0002f5e:	86ae                	mv	a3,a1
    c0002f60:	8732                	mv	a4,a2
    c0002f62:	fef42623          	sw	a5,-20(s0)
    c0002f66:	87b6                	mv	a5,a3
    c0002f68:	fef42423          	sw	a5,-24(s0)
    c0002f6c:	87ba                	mv	a5,a4
    c0002f6e:	fef403a3          	sb	a5,-25(s0)
	CDMA0_JOB_PTR++;
    c0002f72:	44b007b7          	lui	a5,0x44b00
    c0002f76:	4398                	lw	a4,0(a5)
    c0002f78:	00e7571b          	srliw	a4,a4,0xe
    c0002f7c:	03f77713          	andi	a4,a4,63
    c0002f80:	0ff77713          	andi	a4,a4,255
    c0002f84:	2705                	addiw	a4,a4,1
    c0002f86:	03f77713          	andi	a4,a4,63
    c0002f8a:	0ff77713          	andi	a4,a4,255
    c0002f8e:	03f77713          	andi	a4,a4,63
    c0002f92:	00e7171b          	slliw	a4,a4,0xe
    c0002f96:	4390                	lw	a2,0(a5)
    c0002f98:	fff046b7          	lui	a3,0xfff04
    c0002f9c:	16fd                	addi	a3,a3,-1
    c0002f9e:	8ef1                	and	a3,a3,a2
    c0002fa0:	8f55                	or	a4,a4,a3
    c0002fa2:	c398                	sw	a4,0(a5)
	CDMA0_VALUE = value;
    c0002fa4:	44b007b7          	lui	a5,0x44b00
    c0002fa8:	fe744703          	lbu	a4,-25(s0)
    c0002fac:	0037171b          	slliw	a4,a4,0x3
    c0002fb0:	4394                	lw	a3,0(a5)
    c0002fb2:	8076f693          	andi	a3,a3,-2041
    c0002fb6:	8f55                	or	a4,a4,a3
    c0002fb8:	c398                	sw	a4,0(a5)
	CDMA0_MODE = 1;
    c0002fba:	44b007b7          	lui	a5,0x44b00
    c0002fbe:	4398                	lw	a4,0(a5)
    c0002fc0:	9b65                	andi	a4,a4,-7
    c0002fc2:	00276713          	ori	a4,a4,2
    c0002fc6:	c398                	sw	a4,0(a5)
	CDMA0_DST = dst;
    c0002fc8:	44b007b7          	lui	a5,0x44b00
    c0002fcc:	07c1                	addi	a5,a5,16
    c0002fce:	fec42703          	lw	a4,-20(s0)
    c0002fd2:	c398                	sw	a4,0(a5)
	CDMA0_LEN = len;
    c0002fd4:	44b007b7          	lui	a5,0x44b00
    c0002fd8:	07e1                	addi	a5,a5,24
    c0002fda:	fe842703          	lw	a4,-24(s0)
    c0002fde:	c398                	sw	a4,0(a5)
	CDMA0_GO = 1;
    c0002fe0:	44b007b7          	lui	a5,0x44b00
    c0002fe4:	4398                	lw	a4,0(a5)
    c0002fe6:	00176713          	ori	a4,a4,1
    c0002fea:	c398                	sw	a4,0(a5)
	while(CDMA0_DONE_PTR!=CDMA0_JOB_PTR);
    c0002fec:	0001                	nop
    c0002fee:	44b007b7          	lui	a5,0x44b00
    c0002ff2:	439c                	lw	a5,0(a5)
    c0002ff4:	0167d79b          	srliw	a5,a5,0x16
    c0002ff8:	03f7f793          	andi	a5,a5,63
    c0002ffc:	0ff7f713          	andi	a4,a5,255
    c0003000:	44b007b7          	lui	a5,0x44b00
    c0003004:	439c                	lw	a5,0(a5)
    c0003006:	00e7d79b          	srliw	a5,a5,0xe
    c000300a:	03f7f793          	andi	a5,a5,63
    c000300e:	0ff7f793          	andi	a5,a5,255
    c0003012:	fcf71ee3          	bne	a4,a5,c0002fee <cdma_set+0x98>
}
    c0003016:	0001                	nop
    c0003018:	6462                	ld	s0,24(sp)
    c000301a:	6105                	addi	sp,sp,32
    c000301c:	8082                	ret
	...

00000000c0003020 <swflush_dcache_line>:
// registers:	a5: adr
//						a4: rdat
//						a3: DC_BSSIZE (fixed) = 0x1000
// notes:			Flushing a whole cache line requires at least 4 consecutive memory r/w operations with DC_BSSIZE address increments
	// save stack: s0 = sp
	addi	sp,sp,-32
    c0003020:	1101                	addi	sp,sp,-32
  sd		s0,24(sp)
    c0003022:	ec22                	sd	s0,24(sp)
  addi	s0,sp,32			
    c0003024:	1000                	addi	s0,sp,32

	// volatile uchar* adr = (uchar*)((sadr >> DC_BBITS) << DC_BBITS); // multiple of 64 B
	// adr+=DC_BSSIZE;                                                                 
	mv		a4,a0										// a4 = sadr
    c0003026:	872a                	mv	a4,a0
	li 		a5,1										// a5 = 1                                           
    c0003028:	4785                	li	a5,1
	slli	a5,a5,0x20              // a5 = a5 <<0x20 = 1_0000_0000h                     
    c000302a:	1782                	slli	a5,a5,0x20
	addi	a5,a5,-64               // a5 = a5 - 64		= 	ffff_ffc0h
    c000302c:	fc078793          	addi	a5,a5,-64 # 44afffc0 <__lma_size+0x44aeffc0>
	and		a5,a5,a4                // a5 = a5 & a4 : adr
    c0003030:	8ff9                	and	a5,a5,a4
	add		a5,a5,a3								// a5+= a3 = 				adr+0000_1000h
    c0003032:	97b6                	add	a5,a5,a3
	//
	// 4 times required for counter based replacement policy
	//
	// sum = *adr;		                                                                                                      
	// adr+=DC_BSSIZE;                                                                 
	fence	rw,rw                                                                         
    c0003034:	0330000f          	fence	rw,rw
	lbu		a4,0(a5)                // a4 = M[a5] : memory read
    c0003038:	0007c703          	lbu	a4,0(a5)
	lui		a3,0x1									// a3 = 						0000_1000h
    c000303c:	6685                	lui	a3,0x1
	add		a5,a5,a3								// a5+= a3 = 				adr+0000_1000h
    c000303e:	97b6                	add	a5,a5,a3
	
	// sum = *adr;		                                                                                                      
	// adr+=DC_BSSIZE;                                                                 
	fence	rw,rw                                                                         
    c0003040:	0330000f          	fence	rw,rw
	lbu		a4,0(a5)                // a4 = M[a5] : memory read
    c0003044:	0007c703          	lbu	a4,0(a5)
	lui		a3,0x1									// a3 = 						0000_1000h
    c0003048:	6685                	lui	a3,0x1
	add		a5,a5,a3								// a5+= a3 = 				adr+0000_1000h
    c000304a:	97b6                	add	a5,a5,a3

	// sum = *adr;		                                                                                                      
	// adr+=DC_BSSIZE;                                                                 
	fence	rw,rw                                                                         
    c000304c:	0330000f          	fence	rw,rw
	lbu		a4,0(a5)                // a4 = M[a5] : memory read
    c0003050:	0007c703          	lbu	a4,0(a5)
	lui		a3,0x1									// a3 = 						0000_1000h
    c0003054:	6685                	lui	a3,0x1
	add		a5,a5,a3								// a5+= a3 = 				adr+0000_1000h
    c0003056:	97b6                	add	a5,a5,a3

	// sum = *adr;		                                                                                                      
	// adr+=DC_BSSIZE;                                                                 
	fence	rw,rw                                                                         
    c0003058:	0330000f          	fence	rw,rw
	lbu		a4,0(a5)                // a4 = M[a5] : memory read
    c000305c:	0007c703          	lbu	a4,0(a5)
	lui		a3,0x1									// a3 = 						0000_1000h
    c0003060:	6685                	lui	a3,0x1
	add		a5,a5,a3								// a5+= a3 = 				adr+0000_1000h
    c0003062:	97b6                	add	a5,a5,a3
	lui		a3,0x1									// a3 = 						0000_1000h
	add		a5,a5,a3								// a5+= a3 = 				adr+0000_1000h
	*/
	
	//
	fence	rw,rw                                                                         
    c0003064:	0330000f          	fence	rw,rw

	// restore stack
	nop
    c0003068:	0001                	nop
	ld		s0,24(sp)
    c000306a:	6462                	ld	s0,24(sp)
 	addi	sp,sp,32  
    c000306c:	6105                	addi	sp,sp,32
  ret
    c000306e:	8082                	ret

00000000c0003070 <hwflush_dcache_line>:
// registers:	a5: adr
//						a4: rdat
//						a3: DC_BSSIZE (fixed) = 0x1000
// notes:			Flushing a whole cache line requires at least 4 consecutive memory r/w operations with DC_BSSIZE address increments
	// save stack: s0 = sp
	addi	sp,sp,-32
    c0003070:	1101                	addi	sp,sp,-32
  sd		s0,24(sp)
    c0003072:	ec22                	sd	s0,24(sp)
  addi	s0,sp,32			
    c0003074:	1000                	addi	s0,sp,32

	// volatile uchar* adr = (uchar*)((sadr >> DC_BBITS) << DC_BBITS); // multiple of 64 B
	mv		a4,a0										// a4 = sadr
    c0003076:	872a                	mv	a4,a0
	li 		a5,1										// a5 = 1                                           
    c0003078:	4785                	li	a5,1
	slli	a5,a5,0x20              // a5 = a5 <<0x20 = 1_0000_0000h                     
    c000307a:	1782                	slli	a5,a5,0x20
	addi	a5,a5,-64               // a5 = a5 - 64		= 	ffff_ffc0h
    c000307c:	fc078793          	addi	a5,a5,-64
	and		a5,a5,a4                // a5 = a5 & a4 : adr
    c0003080:	8ff9                	and	a5,a5,a4
    c0003082:	fc078073          	0xfc078073
	//fence	rw,rw                                                                         
	.word (0xfc000073 | 15<<15)		


	//
	fence	rw,rw                                                                         
    c0003086:	0330000f          	fence	rw,rw

	// restore stack
	nop
    c000308a:	0001                	nop
	ld		s0,24(sp)
    c000308c:	6462                	ld	s0,24(sp)
 	addi	sp,sp,32  
    c000308e:	6105                	addi	sp,sp,32
  ret
    c0003090:	8082                	ret
	...

00000000c0003094 <hwflush_dcache_range_all>:
//------------------------------------------------------------------------------
//

void hwflush_dcache_range_all(void)

{
    c0003094:	1141                	addi	sp,sp,-16
    c0003096:	e422                	sd	s0,8(sp)
    c0003098:	0800                	addi	s0,sp,16

        asm volatile ("fence rw,rw");
    c000309a:	0330000f          	fence	rw,rw
    c000309e:	fc000073          	0xfc000073

        // def CFLUSH_D_L1 = BitPat("b 1111 1100 0000 ???? ?000 0000 0111 0011") @ Instructions.scala

        asm volatile (".word 0xfc000073");

}
    c00030a2:	0001                	nop
    c00030a4:	6422                	ld	s0,8(sp)
    c00030a6:	0141                	addi	sp,sp,16
    c00030a8:	8082                	ret

00000000c00030aa <hwflush_dcache_range_>:



void hwflush_dcache_range_(ulong sadr, ulong size)

{
    c00030aa:	7179                	addi	sp,sp,-48
    c00030ac:	f406                	sd	ra,40(sp)
    c00030ae:	f022                	sd	s0,32(sp)
    c00030b0:	1800                	addi	s0,sp,48
    c00030b2:	fca43c23          	sd	a0,-40(s0)
    c00030b6:	fcb43823          	sd	a1,-48(s0)


        if (size >= DC_SIZE) {
    c00030ba:	fd043703          	ld	a4,-48(s0)
    c00030be:	6791                	lui	a5,0x4
    c00030c0:	00f76563          	bltu	a4,a5,c00030ca <hwflush_dcache_range_+0x20>

        	hwflush_dcache_range_all();
    c00030c4:	fd1ff0ef          	jal	ra,c0003094 <hwflush_dcache_range_all>

               return;
    c00030c8:	a81d                	j	c00030fe <hwflush_dcache_range_+0x54>

        }



        ulong eadr = sadr + size;
    c00030ca:	fd843703          	ld	a4,-40(s0)
    c00030ce:	fd043783          	ld	a5,-48(s0)
    c00030d2:	97ba                	add	a5,a5,a4
    c00030d4:	fef43423          	sd	a5,-24(s0)

        register ulong new_sadr asm("a0") = ((sadr >> DC_BBITS) << DC_BBITS);
    c00030d8:	fd843783          	ld	a5,-40(s0)
    c00030dc:	fc07f793          	andi	a5,a5,-64
    c00030e0:	853e                	mv	a0,a5

        asm volatile ("fence rw,rw");
    c00030e2:	0330000f          	fence	rw,rw

        while (new_sadr < eadr) {
    c00030e6:	a039                	j	c00030f4 <hwflush_dcache_range_+0x4a>
    c00030e8:	fc050073          	0xfc050073

               // def CFLUSH_D_L1 = BitPat("b 1111 1100 0000 ???? ?000 0000 0111 0011") @ Instructions.scala

               asm volatile (".word (0xfc000073 | 10<<15)");

               new_sadr += DC_BSIZE;
    c00030ec:	87aa                	mv	a5,a0
    c00030ee:	04078793          	addi	a5,a5,64 # 4040 <stack_size+0x3040>
    c00030f2:	853e                	mv	a0,a5
        while (new_sadr < eadr) {
    c00030f4:	872a                	mv	a4,a0
    c00030f6:	fe843783          	ld	a5,-24(s0)
    c00030fa:	fef767e3          	bltu	a4,a5,c00030e8 <hwflush_dcache_range_+0x3e>

        }

}
    c00030fe:	70a2                	ld	ra,40(sp)
    c0003100:	7402                	ld	s0,32(sp)
    c0003102:	6145                	addi	sp,sp,48
    c0003104:	8082                	ret

00000000c0003106 <hwflush_dcache_range>:

void hwflush_dcache_range(uint sadr, uint eadr)
{
    c0003106:	1101                	addi	sp,sp,-32
    c0003108:	ec06                	sd	ra,24(sp)
    c000310a:	e822                	sd	s0,16(sp)
    c000310c:	1000                	addi	s0,sp,32
    c000310e:	87aa                	mv	a5,a0
    c0003110:	872e                	mv	a4,a1
    c0003112:	fef42623          	sw	a5,-20(s0)
    c0003116:	87ba                	mv	a5,a4
    c0003118:	fef42423          	sw	a5,-24(s0)
	if(eadr-sadr> DC_SIZE) eadr = sadr+DC_SIZE;
    c000311c:	fe842703          	lw	a4,-24(s0)
    c0003120:	fec42783          	lw	a5,-20(s0)
    c0003124:	40f707bb          	subw	a5,a4,a5
    c0003128:	2781                	sext.w	a5,a5
    c000312a:	873e                	mv	a4,a5
    c000312c:	6791                	lui	a5,0x4
    c000312e:	00e7f863          	bleu	a4,a5,c000313e <hwflush_dcache_range+0x38>
    c0003132:	fec42703          	lw	a4,-20(s0)
    c0003136:	6791                	lui	a5,0x4
    c0003138:	9fb9                	addw	a5,a5,a4
    c000313a:	fef42423          	sw	a5,-24(s0)

	sadr = ((sadr >> DC_BBITS) << DC_BBITS);
